(lp0
S"Put it back in, it's still moist in the middle.\n"
p1
aS"Now if I can just get it in the hole, I'll show it to you up close and personal.\n"
p2
aS'...a great penetration!\n'
p3
aS"That just kind of squirted out there, didn't it!\n"
p4
aS'Oh it feels so good, you just insert here and squeeze.\n'
p5
aS"Why'd you take it out?! Put it back in!\n"
p6
aS"Ugh! I can't find it!\n"
p7
aS'No, no, go back you were just in it!\n'
p8
aS'When you put it in your mouth it starts out hard but then if you keep going it gets really wet.\n'
p9
aS"Sadness... even thought it's hard you need suck it up and swallow it.\n"
p10
aS"Faster, Joseph! Keep pushing! I know it's hard, but we're almost done.\n"
p11
aS"No, I've still got one more slot\n"
p12
aS"It's a lot easier with your legs open.\n"
p13
aS"...there's one in the front and one in the back.\n"
p14
aS'Wow, dude, your hole is so big compared to mine!\n'
p15
aS"I'd much rather get my fingers sticky than my mouth.\n"
p16
aS"It's so deep, and moist!\n"
p17
aS'You gotta go further in.\n'
p18
aS'Come on, put your mouth on it! Suck it! Suck it, Kathy!\n'
p19
aS"Yeah but it's too big. I can't fit it in my mouth\n"
p20
aS"I know. It's thick and big, just how I like it.\n"
p21
aS'Make sure you beat it until it gets really hard, and then put it in.\n'
p22
aS"I said I wouldn't come, but I've lost all control and I need you now.\n"
p23
aS'I had to suck really hard to get it up then it went straight to the back of my throat!\n'
p24
aS"Just keep shoving it into holes and you'll find the right one eventually.\n"
p25
aS"I don't like to swallow right away, I like to keep it in my mouth.\n"
p26
aS'Pull your finger out of there!\n'
p27
aS"Can we slow down? Actually, can we just dismount for a minute? I need to catch my breath, I'm not used to riding this hard.\n"
p28
aS'Let me pull out so you can get in.\n'
p29
aS"This is confusing, and it's taking too long!\n"
p30
aS"Well if you'd have been doing it right 5 minutes ago, you would be done by now!\n"
p31
aS'He just shoved his head in between my legs!\n'
p32
aS"Pull it out a little bit, it's in too far.\n"
p33
aS'There should be a big black one in there.\n'
p34
aS'Well now you have to eat it because you already fingered it.\n'
p35
aS'Can you screw it in the other holes?\n'
p36
aS"That wasn't as hard as I thought it was going to be.\n"
p37
aS"Oh thank God it's shorter. Otherwise that would be waaayyy too long for me to handle.\n"
p38
aS'Oh, it finally came out.\n'
p39
aS"I don't want to get my legs all wet before I get it in!\n"
p40
aS'Just close your eyes, they all taste the same.\n'
p41
aS'Guys, I know that fits in a lot of places, but you have to learn to control it.\n'
p42
aS' I think i need a big black one.\n'
p43
aS'Oops, sorry, I swallowed\n'
p44
aS'It tastes better than it smells\n'
p45
aS"Okay, well, I'll still take it. Just make sure you put it in my box tonight.\n"
p46
aS"It's pretty big, so you better get it in to me.\n"
p47
aS"You came! You came! It's about time!\n"
p48
aS'I do this way better with my fingers.\n'
p49
aS'The hole is not big enough.\n'
p50
aS'I thought it would be bigger than that.\n'
p51
aS'I did all the hard ones last night.\n'
p52
aS"There's a huge load in the rear.\n"
p53
aS'Its not that it was hard, it was just very very long.\n'
p54
aS"I'll have the 8-inch, I haven't had a 12-inch in a while.\n"
p55
aS"It came all over me and I'm all wet.\n"
p56
aS'I like to do it slow because it lasts longer.\n'
p57
aS'That was really slippery, do you want it tighter, Jordan?\n'
p58
aS'I still have the flavor of your nuts on my tongue!\n'
p59
aS'Wow this one is really long, it might take a while. Hope you guys can handle it.\n'
p60
aS"Don't finish before me! Wait for me, so I don't have to finish by myself!\n"
p61
aS'poke it and if it jiggles, put it back in for another 5 minutes.\n'
p62
aS'make sure you wash your hands after handling those sweaty balls.\n'
p63
aS"I want you to mount it and grip it tight. I don't want you sliding off the end. Lean forward slightly and touch back down.\n"
p64
aS"It's everywhere! Give me a tissue! \n"
p65
aS"Whoa, that's a long one.\n"
p66
aS'You have white stuff all over your face.\n'
p67
aS'You really need to be in the mood for it or it just leaves you feeling unsatisfied.\n'
p68
aS'Make sure to get it in there quick.\n'
p69
aS"How'd that white stuff get all over your pants?\n"
p70
aS'Which hole does it go in?\n'
p71
aS'Just put your hand down there and grab it\n'
p72
aS"Dude, why'd you just stop randomly?\n"
p73
aS'I came that day and I got massively wet.\n'
p74
aS"I can't, it wont go in any further, and if I push it anymore it'll get stuck!\n"
p75
aS'When you put it in your mouth it starts out hard but then if you keep going it gets really wet.\n'
p76
aS"Faster, Joseph! Keep pushing! I know it's hard, but we're almost done.\n"
p77
aS'It was just so beautiful, and big, and perfect.\n'
p78
aS'Look at how full my box is, I can barely get my hand in it.\n'
p79
aS"If I have to wait for you to come I'll be here all night!\n"
p80
aS"Those are too thin. They won't last very long.\n"
p81
aS"Wow! That's a deep, dark crack down there!\n"
p82
aS'Without any warning, he just plowed me from behind!\n'
p83
aS'Wow, the dang thing is really in there, how will I get it out?!\n'
p84
aS"No! You must stick it in, and make sure it's moist!\n"
p85
aS'You have to put it on the hole and push it in.\n'
p86
aS"If you don't stop sticking that thing in me, I'll break it off!\n"
p87
aS'More wood! You all need to get more wood!\n'
p88
aS"When you think about it, it was inside of my mouth, so it doesn't really count.\n"
p89
aS"My biggest fear is that it's going to get into my eyes.\n"
p90
aS"It's so slippery, I can't stop!\n"
p91
aS"Make sure it's in all the way\n"
p92
aS'Sorry guys, it usually takes me a few holes to get warmed up.\n'
p93
aS'I just got nailed from behind!\n'
p94
aS'Just hurry up and shove it all in there!\n'
p95
aS"I've never done one this big before!\n"
p96
aS"It's really hard so I have to just keep in my mouth and suck on it for a while.\n"
p97
aS'Well I had four guys on me.\n'
p98
aS'Pull it out and stick it back in.\n'
p99
aS'Try the other hole.\n'
p100
aS"How am I supposed to do this, it's so short!\n"
p101
aS'When we get done with the little one, were gonna do the big one.\n'
p102
aS"Oh damn it's too big, it won't fit. I guess I'll just have to suck on it.\n"
p103
aS"hmm it's long, black, and thick.\n"
p104
aS'Gaz, stop hitting me with your balls!\n'
p105
aS"I don't care how you get it in there, just do it!\n"
p106
aS'Wow my hand can really make it squirt.\n'
p107
aS'It was a lot easier on my knees.\n'
p108
aS'You have a 50% chance of getting head and a 50% chance of getting tail.\n'
p109
aS'It took 4 of us to get it back up.\n'
p110
aS'It felt like it was 8 and it was really 6, and it is so dark!\n'
p111
aS'He just exploded all over me!\n'
p112
aS"I'm sucking so hard and nothing is coming out.\n"
p113
aS"You're gonna have to put it in for me.\n"
p114
aS"Don't touch it yet, it ain't hard enough.\n"
p115
aS"Well at least we'll both go down together!\n"
p116
aS'It tasted good, but it had a bad after taste.\n'
p117
aS"Simpson! You've been waving your nuts in my face for too long!\n"
p118
aS'Put it back in!\n'
p119
aS'It slides in so easily.\n'
p120
aS'Stop tugging on that or it will crack!\n'
p121
aS"I wasn't expecting so many people to be pulling on it all night!\n"
p122
aS'Which hole does this go in, the bottom or the top?\n'
p123
aS" It's not thick enough.\n"
p124
aS'Push it in harder!\n'
p125
aS'At least give me some warning before you come in!\n'
p126
aS"I like to start out on top, then when I get tired of that, I'll move to the bottom.\n"
p127
aS"If you it pull it out of my mouth it'll come on my dress!\n"
p128
aS'I hate going down because it hurts my knees.\n'
p129
aS'Wow, you suck a lot! You suck more than I do!\n'
p130
aS'This is so easy, I could be in this position for hours.\n'
p131
aS'What? I like stuffing it all in my mouth at once.\n'
p132
aS'So you take the cap off, stick it into me, count to ten and pull it out.\n'
p133
aS"It won't fit. Wait, no wonder, wrong hole!\n"
p134
aS"Let's do it right here, right now!\n"
p135
aS'I was barely doing it for 10 minutes and I was dripping wet!\n'
p136
aS'The longer it gets, the harder it is.\n'
p137
aS'Yeah, she gets off really easily.\n'
p138
aS'Did I say you could take that out?\n'
p139
aS"It's too hard! I can't get it out.\n"
p140
aS"It's not huge, but it's big enough.\n"
p141
aS'Ew, I just did all of that work, and now I have white stuff all over my hands!\n'
p142
aS"There's too much friction, I can't slide down.\n"
p143
aS'Maybe we should oil it up and try again.\n'
p144
aS'Every time I stick it in, it slides right back out!\n'
p145
aS'I have been blowing it all day!\n'
p146
aS'If you could make it harder, that would really help.\n'
p147
aS"Oh no, it's all wet...crap it penetrated through!\n"
p148
aS'So first, you have to lubricate it, put it in and slide it in and out, until it looks good.\n'
p149
aS"It was so small I didn't even feel it sliding out.\n"
p150
aS'This is really hard to swallow.\n'
p151
aS'It hurts like hell! Pull it out, Pull it out!\n'
p152
aS"Wait! I can't find my rubber! I use it for my strap on!\n"
p153
aS"It's a rough ride in the back. We had to hold our boobs or it hurt.\n"
p154
aS'It was unusually long in my mouth.\n'
p155
aS"How far do I push this thing in? It's so hard.\n"
p156
aS'...I got tired of looking at it, so I put it in my mouth.\n'
p157
aS"SORRY! I didn't even know you were in there!\n"
p158
aS'I like it both ways.\n'
p159
aS'These are so much bigger than the ones from last time!\n'
p160
aS"That wasn't bad at all! It was much easier than I expected, and it went by pretty quickly.\n"
p161
aS"For example, life is highway, and I'm gonna ride it all night long.\n"
p162
aS'Do I have any nuts in my teeth?\n'
p163
aS"Stop sliding it in so hard! You're going to break it!\n"
p164
aS"Just put it in now and you'll feel a lot better.\n"
p165
aS"I'll be finished long before you're done squirting that in there.\n"
p166
aS"Dillan, you squirted it on me! I'm wet!\n"
p167
aS"there used to be a bush there, but it's not there anymore.\n"
p168
aS"Dad, it's not going in.\n"
p169
aS"Try sliding it in, but don't force it, it's delicate.\n"
p170
aS"I can't wait to shove that foot-long in my mouth!\n"
p171
aS" I'm suprised that nut lasted that long, with it being finger tight.\n"
p172
aS'Ugh, why does it keep slipping out?\n'
p173
aS"It's hard to do it standing up.\n"
p174
aS'You gotta pull it out and lick all the white stuff off.\n'
p175
aS'I like how the balls feel in my hand.\n'
p176
aS"It's growing bigger and bigger and it won't stop.\n"
p177
aS'Wow, I can feel it getting harder now!\n'
p178
aS"That's the dumbest position I've ever been in, all I did was sit there and get paid to do it.\n"
p179
aS"This ball is really old and dirty. I don't think it is going to work very well.\n"
p180
aS'Why do I even keep trying? This thing is bigger than I am. Screw it.\n'
p181
aS'Come on, open wider, you can fit more in!\n'
p182
aS"This is too short. It's just silly.\n"
p183
aS"It looks like it's wet, you rubbed it too much and now it's wet.\n"
p184
aS"If you don't get that thing away from me I swear I will snap it in half!\n"
p185
aS'Push it in slowly.\n'
p186
aS'What are you supposed to do with something that little?\n'
p187
aS'Pull the fuck out!\n'
p188
aS'Whip it out and hand it to me.\n'
p189
aS'Give it to me in the front. Wait no, actually, give it to me in the back.\n'
p190
aS"Oh, I didn't know you came.\n"
p191
aS"Stop shoving it into me! There's already one in there!\n"
p192
aS'Alright, take out that big monster.\n'
p193
aS'Do you have an extra G-string?\n'
p194
aS'No, I want to wait so I can get more than just the head in my mouth.\n'
p195
aS'Wow, it got up really high that time.\n'
p196
aS"Don't push it in too deep, or it's gonna get stuck\n"
p197
aS'Its so hard, and I got white stuff all over me.\n'
p198
aS"Fine, I'll have to play with myself instead.\n"
p199
aS'It just squirted at me!\n'
p200
aS'I just like to sit there and suck on them\n'
p201
aS"I'm really getting tired of having this thing in my mouth.\n"
p202
aS"I can't do it, it hurts!\n"
p203
aS'Yeah, it used to hurt me before, but now it comes naturally.\n'
p204
aS'Keep blowing, it feels so good!\n'
p205
aS"If you poke me with that thing one more time I'm gonna break it off.\n"
p206
aS'Well, I heard you say my name so I came as fast as I could.\n'
p207
aS'Hey Curt, Think you can make that hole any bigger?\n'
p208
aS'Ooh, I love the long, juicy ones!\n'
p209
aS"It tasted so good I didn't know whether to spit or swallow it!\n"
p210
aS'I was playing with it, and then it got longer, so I yanked it off!\n'
p211
aS'Just jerk it as hard as you can!\n'
p212
aS'it felt like it was slithering down my throat!!\n'
p213
aS'You can suck them and suck them and suck them and they will never get any smaller!\n'
p214
aS"Lose-Lose says 'If I'm going down, then you're going down with me, sucker.\n"
p215
aS'Do I suck it or just put it all into my mouth?\n'
p216
aS"It's pretty hard actually. Harder than you expect.\n"
p217
aS"This is so hard, it won't fit in!\n"
p218
aS'Try opening the hole a little bit.\n'
p219
aS"It's still too small.\n"
p220
aS'Okay, let me hold your wood, and you drill it in.\n'
p221
aS'Did it taste better when it was wet?\n'
p222
aS"I know! I've never had to swallow one this big!\n"
p223
aS'lubricates it so it can easily go in and out.\n'
p224
aS'I have three holes.\n'
p225
aS'Just tell me if you get too wet, okay?\n'
p226
aS"Don't you dare blow on me!\n"
p227
aS"It's really small, you gotta jam it in there real hard.\n"
p228
aS"Darn I'm just not sucking anything up!\n"
p229
aS'You just have to keep pushing, but not too hard or else you might get wet.\n'
p230
aS"That was easy, I didn't even have to bang it.\n"
p231
aS"It's too small, it keeps sliding out of place!\n"
p232
aS"Back in my day they weren't as big, you could get done with them in no time.\n"
p233
aS'I looked down and saw this black thing going in the hole.\n'
p234
aS'Are you stiff yet?\n'
p235
aS"He could see where the hole was, but it just closed up so quickly that he couldn't get in there.\n"
p236
aS'Make sure you shove it kinda hard so it goes in the holes.\n'
p237
aS'I cant blow hard enough to keep it up.\n'
p238
aS'Yeah, you can only play with so many balls.\n'
p239
aS"Can you put it in? I can't seem to find the hole and it's starting to hurt already.\n"
p240
aS'Hurry, whip it out so we can get started.\n'
p241
aS'Oh wait this is too small. I want it bigger.\n'
p242
aS'When I pulled it out, there was white stuff on me.\n'
p243
aS'I have to be careful or it might come out all over everything.\n'
p244
aS"I'm just going to do this quick and dirty.\n"
p245
aS"Ahhh! It's in me! OMG, it's so big! It hurts, get it out!\n"
p246
aS'Put it in further and push harder!\n'
p247
aS"Damn it Adam, I could actually get some if you didn't keep pulling out so fast!\n"
p248
aS'I had it and my sister wanted it, so gave it to her and she rode it for a while.\n'
p249
aS'I still have the taste of nuts in my mouth!\n'
p250
aS"I can't get it out!\n"
p251
aS'You have to rub it harder.\n'
p252
aS"I still can't get it out.\n"
p253
aS"You suck, but you're better at getting it out than Tim is.\n"
p254
aS'Ugh, rubbing it more just made it bigger.\n'
p255
aS'Thanks for letting me know you were coming inside!\n'
p256
aS'Most of the time I can control, it but today it just came out\n'
p257
aS'The opening is in the back, so you kind of have to slide it in from below.\n'
p258
aS"This may be a little rough, he's really big.\n"
p259
aS"It goes to sleep if I don't touch it for too long.\n"
p260
aS"Just because it's long doesn't mean it's hard.\n"
p261
aS'This is going to be a big one! Here it comes!\n'
p262
aS"Ughh I'm tired of putting them in just to pull them out! You do it!\n"
p263
aS'I can feel it going down my throat.\n'
p264
aS'Mmm, I like where your head is.\n'
p265
aS'This feels weird in my mouth.\n'
p266
aS'Everybody in the hole!\n'
p267
aS'What is that gross stuff in there?\n'
p268
aS'I dont like things that squirt in my mouth.\n'
p269
aS"Let me know if that's blowing too hard.\n"
p270
aS'It is so big I have to use both hands.\n'
p271
aS"You know, it actually feels better the farther in you go. Once you're all the way in, it feels perfect.\n"
p272
aS"It's going to be really hot and tight.\n"
p273
aS'Is it wide enough for you?\n'
p274
aS"It's wide enough to fit, just I want it longer.\n"
p275
aS'It went down the wrong hole!\n'
p276
aS'it makes my day every time he comes inside.\n'
p277
aS'High five, you made it in!\n'
p278
aS'The more massive it is, the more penetrating power it has.\n'
p279
aS'If you can get the inside wet, you should be able to get it off.\n'
p280
aS'Yeah, I think they have to be wrapped.\n'
p281
aS'Yeah, just stick it in there. You gotta shove it in that hole.\n'
p282
aS'You will feel everything with this one, it has a very sensitive tip.\n'
p283
aS"That's okay I like mine tight.\n"
p284
aS"It's wide open for you, just the way you like it!\n"
p285
aS"Oh my goodness, that's enormous. It's almost the size and weight of the phone.\n"
p286
aS'blows to hard it gets all over get face!\n'
p287
aS"This isn't even fun anymore. Its hot, sticky, and taking too long.\n"
p288
aS"Wow, that's a good one...you should pull it out at parties.\n"
p289
aS"OMG I'm so wet...can I get a towel?\n"
p290
aS'Let me see how wet it is before I put it in.\n'
p291
aS'Ah! Its dribbling down my chin!\n'
p292
aS'It is not bigger than me. I am bigger than it.\n'
p293
aS"I don't want to put that in my body\n"
p294
aS"Can you tell me if it's coming any time soon? Because this is ridiculous!\n"
p295
aS"It doesn't matter what color they are, they all taste the same.\n"
p296
aS' It got everywhere but my mouth\n'
p297
aS"It's thicker than I thought.\n"
p298
aS"W'hen the balls hit you its probably going to hurt since it's your first time\n"
p299
aS"Push it in harder, it'll probably go in far enough.\n"
p300
aS"Just do it until it's long enough\n"
p301
aS'Nope that does go in there. No, not in there either. Keep trying Charles, you can do it!\n'
p302
aS"It's too dry to fit down my throat.\n"
p303
aS"We can't just stick a finger in the dyke, someone's gotta go down.\n"
p304
aS"It won't go in!\n"
p305
aS"Are you sure it's in the right way?\n"
p306
aS'Hold on, let me use both hands.\n'
p307
aS"No, you're putting it in too far... you're shoving it too hard... well don't put your finger in the hole!\n"
p308
aS"It won't go in.\n"
p309
aS"What, it's stuck.\n"
p310
aS"It's getting too hard to blow.\n"
p311
aS"stop! you're stretching my hole!\n"
p312
aS'We have to be really fast when they start coming.\n'
p313
aS"I feel the 3 holes but I don't know where to put it in.\n"
p314
aS'Can u put that thingy down?\n'
p315
aS"I can't. I keep on pulling on it but it won't come down!\n"
p316
aS'Come on! come on! Faster faster! Harder Harder! Come on you can do it!\n'
p317
aS'Thank you for coming, I know it was long.\n'
p318
aS'Where do you put it in?\n'
p319
aS"Man, she almost fell from yankin' that thing so hard.\n"
p320
aS"I can do a lot with this even though it's short.\n"
p321
aS'Stop fingering my muffin!\n'
p322
aS"Don't ask questions, just put this in your mouth and suck on it.\n"
p323
aS"She's good with the hands, bad with the head!\n"
p324
aS"You have to pay to use the front entrance, but the rear entrance is no charge. I prefer using that one; it's more fun.\n"
p325
aS' Quit fingering it, and just eat it.\n'
p326
aS'It almost got in the hole!\n'
p327
aS"It's not how hard you blow, it's all about technique.\n"
p328
aS"No matter how hard I suck on this thing, it still won't come up.\n"
p329
aS'It was fast, it was hard, and you hit everything with perfect accuracy. I loved it.\n'
p330
aS'I only saw the tip of it but it looks huge!\n'
p331
aS'For such a small man, he takes a long time.\n'
p332
aS'Where do I put this?\n'
p333
aS'Put it in my box.\n'
p334
aS'What if you choke on it?\n'
p335
aS"It hardly fits in my mouth, it can't fit in my throat.\n"
p336
aS'I took yours out earlier because it was so small.\n'
p337
aS"I can't spread my legs far enough to get on it.\n"
p338
aS"You're going to have to pull out before I can get in there.\n"
p339
aS"Don't put it in yet!\n"
p340
aS'It was gonna blow so I had to cover my face.\n'
p341
aS"Great! Now I'm all wet. We have to get it out quick!\n"
p342
aS'It was way too slippery, I had nothing to hold on to!\n'
p343
aS'I just need to stuff something in my mouth to keep me satisfied.\n'
p344
aS'Hey, get out of my bush!\n'
p345
aS"You can put it in either one, but make sure you don't squish my buns.\n"
p346
aS"Can you not drive like that while this is in my mouth? It's going to get all over my face.\n"
p347
aS"Dont get me wrong, it's nice, really nice, but it's just too big.\n"
p348
aS"But I've seen them come a lot faster.\n"
p349
aS"...when it's thicker, it's usually shorter!\n"
p350
aS"Let's do it orally, it will be faster.\n"
p351
aS'Hey look it fits in the crack!\n'
p352
aS'How big do you think that one is?\n'
p353
aS"I'm not sure, but I'll bet it's huge.\n"
p354
aS'Why does it get all wet like that?\n'
p355
aS'I love putting things in my mouth...it feels good!\n'
p356
aS"Oh, yeah, it's the blackest one I've ever seen and it lasts a really long time.\n"
p357
aS'Contractions are 10 minutes apart...now if it would just get harder we might see some progress.\n'
p358
aS"that was the most enjoyable sausage I've ever had in my mouth.\n"
p359
aS'He put that thing in my face, and I can still taste it in my mouth!\n'
p360
aS'There you go. Push it up into her.\n'
p361
aS'I like them hard.\n'
p362
aS'The harder they are, the more they hurt.\n'
p363
aS"It's so big!\n"
p364
aS"What? I can't wrap my hand around it!\n"
p365
aS"How come mine isn't big enough?\n"
p366
aS"I don't know maybe the hole's too small!\n"
p367
aS"OK, I'm just going to hold this and stare at it until it comes.\n"
p368
aS'Look! I can put the whole thing in my mouth and take the nut out!\n'
p369
aS'Whoa, he pulled out without warning!\n'
p370
aS'When I kissed him, it got a little bigger.\n'
p371
aS'You really have to suck hard to get it come in your mouth.\n'
p372
aS'Geez, It just keeps getting harder and harder the more you play with it!\n'
p373
aS"It's always dark and I'm always drunk when I go down here.\n"
p374
aS'I usually just go down but sometimes they make me do other things.\n'
p375
aS"I hate it when you have it in your mouth and you just don't want to swallow\n"
p376
aS'Yeah, I thought it was gonna be a little long, but it was actually kinda short. It fit perfectly.\n'
p377
aS"Wow, I didn't know he could get that long!\n"
p378
aS'Get your finger out of my muffin!\n'
p379
aS'This is the hardest thing I have ever sat on.\n'
p380
aS"Any time he'd come I would tilt my head back and swallow the whole thing.\n"
p381
aS"Yea, it wasn't hard to get off.\n"
p382
aS"How many BJ's do you need?!\n"
p383
aS"Yeah, it's gonna be never ending. The company is fine. It's my butt that can't take it.\n"
p384
aS"Wow, it's amazing what you can do with your two fingers.\n"
p385
aS'Why do you always pull it out when I get to the good part?\n'
p386
aS"It's been in your mouth for half an hour! Either spit it out or swallow it!\n"
p387
aS'I like doing the big ones.\n'
p388
aS'Come on, get in, get in HURRY!\n'
p389
aS'Put it back in and this time wait until you finish to pull it out.\n'
p390
aS'Oh man! It squirted on my face!\n'
p391
aS'You sure you know where to put it in?\n'
p392
aS'Man it hurts my legs trying to balance on this thing\n'
p393
aS"Why the heck won't it go in? Oh, it's not stiff enough.\n"
p394
aS'Uhh! I have to suck so hard!\n'
p395
aS'Once I\x89??ve been drinking a lot, my top comes off pretty easily.\n'
p396
aS"It's really wet and I've already had a couple kids go down unexpectedly.\n"
p397
aS'it was too big, and had too much cream.\n'
p398
aS'Yeah, it was just something that came out unexpectedly.\n'
p399
aS'Your noodle just squirted up into me!\n'
p400
aS'Alright, I will try my hardest to come.\n'
p401
aS'Pump with your right hand and then slowly add in your left.\n'
p402
aS"Stop! I'm already wet without you putting your hands on me.\n"
p403
aS'It tastes better if you lick it off the top\n'
p404
aS"I dont think it's going to fit, maybe we should get it wet, then it will slide in really easy.\n"
p405
aS'Ughh, I hate those big black balls!\n'
p406
aS'Stop playing with it and eat it already!\n'
p407
aS'This gives your arm a workout!\n'
p408
aS'Ow, now my cheeks hurt from blowing too hard.\n'
p409
aS'It was so hard my lips were swollen.\n'
p410
aS'Is there any white stuff on my face?\n'
p411
aS'Oh yeah I hate it when it pulls out just as you get there.\n'
p412
aS"I'm going to finish this sausage....yummy.\n"
p413
aS'You almost made me choke!\n'
p414
aS"I've never felt something go that far down my throat in my life!\n"
p415
aS'It squirted all over my face and hands!\n'
p416
aS"dangit, it fell out. I can't get it back in.\n"
p417
aS'This is a long and hard one, so ride it the hardest and fastest you can.\n'
p418
aS"I'm putting it in all the way and it doesn't work! If I keep pulling it out it'll get even harder!\n"
p419
aS"it's too thick. I just keep sucking and I'm getting dizzy from it.\n"
p420
aS"There's too much of it, it wont all go in at once.\n"
p421
aS"Here, I'll just put it in quick and fast.\n"
p422
aS"NO! It's too big, it will rip!\n"
p423
aS'Son, after she gets off, then you can leave.\n'
p424
aS'Everyone squirted a little in mine.\n'
p425
aS'Do you have to suck harder to get more out?\n'
p426
aS"That's quite big, it might not fit. Oh shove it in anyway!\n"
p427
aS"You know, from what I hear, they don't really suck. They blow.\n"
p428
aS"It's not working.\n"
p429
aS'Just jiggle it around a little and it should slide right in\n'
p430
aS'Yeah, everything on that boy is oversized.\n'
p431
aS"I don't care as long as it's fun to play with.\n"
p432
aS"It's so big! I can't possibly fit the whole thing in my mouth!\n"
p433
aS'Just stuff the damn thing in your mouth and swallow.\n'
p434
aS"It's too big, it won't fit in.\n"
p435
aS'As soon as I squeezed it, it squirted on me.\n'
p436
aS"Normally there's a huge climax but for some reason it's not coming.\n"
p437
aS'Oh just put it back there somewhere, but be gentle with it; I dunno if its wrapped.\n'
p438
aS'I cant suck that! It is way to large to fit in my mouth!\n'
p439
aS'I know, he licks and licks and makes everything wet!\n'
p440
aS'Honey, come faster, I have to go!\n'
p441
aS'Ok, I finally came. Are you happy now?\n'
p442
aS"He's so big, let the poor guy in. It's probably already hard.\n"
p443
aS"Slow down, you're too quick!\n"
p444
aS"The head is the best part, it's very juicy. You need to get it and suck it, suck every little thing out.\n"
p445
aS"There's no way I can fit all of this in my mouth!\n"
p446
aS"It isn't stiff enough yet.\n"
p447
aS'Do you want me to pull it out for you?\n'
p448
aS"I'm going to put my mouth on it and suck it dry.\n"
p449
aS" It's big, it's slow and it's gonna be long.\n"
p450
aS'Yeah, I was hopping up here so you could get off.\n'
p451
aS"Put this in. You'll like it.\n"
p452
aS"Wow, I didn't know they came that small.\n"
p453
aS'Oh, it was a long one.\n'
p454
aS"Don't squeeze it too hard or it will all come squirting out the top.\n"
p455
aS"It's hard to suck.\n"
p456
aS"If I suck too hard, I'm gonna choke.\n"
p457
aS'Boy, I sure hope that tastes better than it smells.\n'
p458
aS'No, because it will take me longer than you to finish.\n'
p459
aS"It was long and black and wouldn't get out of me.\n"
p460
aS"It was coming at me so fast, I didn't have time to close my mouth. That thing entered so quickly.\n"
p461
aS"Oh, that's not going to be big enough.\n"
p462
aS'When you stick it in, it hurts.\n'
p463
aS'oh, two guys are coming, this is going to be a real treat.\n'
p464
aS"It was exciting, I just wish it would've lasted longer.\n"
p465
aS"It's bigger than yours right?\n"
p466
aS"No, they're about the same size except his is longer.\n"
p467
aS"I'm getting it wet first so it won't hurt!\n"
p468
aS"I worked that hard getting it in, I'm not taking it out.\n"
p469
aS'Hey can you pull it out so I can go down?\n'
p470
aS'I choked before I even put it in my mouth.\n'
p471
aS"I'm waiting for you to go down, I don't care how long it takes I got all day.\n"
p472
aS'My favorite way to have these is to suck on them one at a time.\n'
p473
aS' I had to press it really hard so the sticky stuff would come out.\n'
p474
aS'Yeah ,but I hate when you blow really hard and it explodes all over your face.\n'
p475
aS"I can't believe it's so tiny.\n"
p476
aS'come on! just put it in your mouth and blow!\n'
p477
aS'Well, my husband is pretty big, and I want him to be able to get in and out pretty easily.\n'
p478
aS"I'm sucking, but nothing's coming out!\n"
p479
aS"No honey, not that hole, it's too small I don't think it will fit, try again!\n"
p480
aS"I'm squeezing it but nothing's coming out on me\n"
p481
aS"You're going to have to take it out and turn it around then then put it back in because it's too big and wet\n"
p482
aS"I'm trying to stretch my hole\n"
p483
aS'Aim for the Mouth!\n'
p484
aS"That's fine. It's better when you go deep.\n"
p485
aS'You just get a little in your mouth, and be sure to blow really hard.\n'
p486
aS"It's not going to fit.\n"
p487
aS'Come on if you turn it the other way it will fit.\n'
p488
aS"You're right, its smaller than it looks, I thought it was bigger.\n"
p489
aS"You've got some on your face.\n"
p490
aS'This piece is too big...I cant fit it in my mouth.\n'
p491
aS"Don't poke it with a stick. Just run off and play with your balls.\n"
p492
aS'Aw, it fell out of my mouth.\n'
p493
aS"Well you need to either keep it in your mouth or don't put it there in the first place.\n"
p494
aS'My hand and arm are getting tired.\n'
p495
aS"We're almost done, keep stroking.\n"
p496
aS"Will you just stick your thing in me so it won't hurt me anymore? Because I REALLY want to do this.\n"
p497
aS"I didn't touch your thing, but its up\n"
p498
aS'just angle your body right and that sucker in.\n'
p499
aS"What the fuck! Don't you know how to aim, you got me right in the eye!!\n"
p500
aS'Does anyone have a rubber I can borrow, I will give it back after I finished with it.\n'
p501
aS"stop playing with that. You'll stretch it out and then I can't use it\n"
p502
aS"it's all slimy cause I was sucking on it.\n"
p503
aS'Wow that really shot out of there.\n'
p504
aS'I need another six inches.\n'
p505
aS"My hand's getting kinda tired. Does anyone else wanna beat this?\n"
p506
aS"Don't blow yet, just try fingering it first.\n"
p507
aS'No fair! He came right between my legs!\n'
p508
aS"Shane, why can't you just come earlier and leave sooner?\n"
p509
aS'Yeah, it was a big scary one. I was shaking it lasted so long!\n'
p510
aS'Help me, I cant seem to get it to go in!\n'
p511
aS'Alright, come on, girls on top, boys on the bottom\n'
p512
aS"You're sticking it in the wrong hole!\n"
p513
aS'How did you miss that shot?\n'
p514
aS'My hands are still slippery from earlier.\n'
p515
aS'Maybe we should try something horny.\n'
p516
aS'Hmm...I like anything that can fit in my mouth.\n'
p517
aS"I'm having trouble putting it into this hole here.\n"
p518
aS'omg you squirted it in my eye you bastard, it burns!\n'
p519
aS"Oh come on!! If it's really tiny, we'll just ride it twice!\n"
p520
aS"It's OK, bigger things have been shoved in there.\n"
p521
aS"I'm in an awkward position.\n"
p522
aS'ughh it hurts when I swallow\n'
p523
aS'stop blowing it or you will hurt yourself!\n'
p524
aS"You can't go that fast when it's this tight!\n"
p525
aS'No way that is too big!!\n'
p526
aS'The balls are just hanging there!\n'
p527
aS'Are they stuck in the hole?\n'
p528
aS"It's the wettest thing in the world.\n"
p529
aS"Wow! That's really long!\n"
p530
aS"Hey, I'm getting pretty good at this! It's easier than I thought it would be!\n"
p531
aS'It came, it finally came...THE BIG ONE.\n'
p532
aS'it wont fit!\n'
p533
aS'oh, you probably have to wiggle it around then it will slide in.\n'
p534
aS"It's in right! Why does it hurt so much, it's not like it's my first time or anything!\n"
p535
aS'wow you are the perfect length for me right now.\n'
p536
aS"I guess I was so excited that I just couldn't wait to get it in my mouth. Remind me never to put something so big and... hard in my mouth again. It really tore it up.\n"
p537
aS'You can try and stick it in there but its going to get really tight.\n'
p538
aS'Hot damn that hurt, but it was a good hurt. I broke a sweat. A major sweat.\n'
p539
aS'Just stick it in there, fill it up, and pull it back out.\n'
p540
aS"I don't understand why it gets so big.\n"
p541
aS"Be patient, I know it's hard and the floor is uncomfortable, but I'm almost finished.\n"
p542
aS'Oh I call top!\n'
p543
aS"Oh it's your first time! Need any help?\n"
p544
aS'The faster you bang it, the more it hurts\n'
p545
aS"That's right, you can't stick it in if there's one in there already.\n"
p546
aS"We'd love to be sitting on your face\n"
p547
aS'Just try blowing harder\n'
p548
aS"I can't blow harder, it's too much.\n"
p549
aS"It seemed like it would be easy to do, but it was just so hard! And after all that he didn't even like what I did so I had to do it again!\n"
p550
aS'He can do magical things with his fingers\n'
p551
aS'Put it in and then you can come inside.\n'
p552
aS'the longer you play with it, the harder it gets.\n'
p553
aS"No, no! Don't take it out! It wont go back in!\n"
p554
aS'Here put it in my hands and ill lick it from the bottom for you\n'
p555
aS'I could get this in! I could get this in! I just need to squeeze it tight and push it in quickly.\n'
p556
aS'Head is important, and make sure you give a lot of it to your customers.\n'
p557
aS"just put it in the back of your throat and don't think about it.\n"
p558
aS"I thought you'd examine before you put it in your mouth!\n"
p559
aS"Just taste it, and then spit it out. Don't swallow.\n"
p560
aS"I just can't believe that huge thing explodes 8 to 12 times every day!\n"
p561
aS'Yeah whenever you stuff it too much, it rips.\n'
p562
aS"Don't blow too hard, you don't want it all over your face.\n"
p563
aS'Its harder to keep in when its thin. It just keeps falling out.\n'
p564
aS'I keep swallowing the white stuff, but it keeps on coming!\n'
p565
aS"it's too big, I can't receive it.\n"
p566
aS'my hands hurt can we take a break.\n'
p567
aS' the harder you go, more will come out.\n'
p568
aS'You have to use two fingers.\n'
p569
aS'So we can use either hole, right?\n'
p570
aS'It was really big and uncomfortable in my mouth\n'
p571
aS"Darling it's better down where it's wetter, take it from me.\n"
p572
aS'Can you STOP making my hole bigger!\n'
p573
aS'Well yeah, big things are more fun.\n'
p574
aS'You just have to get it wet then shove it right in!\n'
p575
aS"once you suck all the juice out, it's pretty much good for nothing.\n"
p576
aS'I saw you at your game last night but the worst part of it is I was sooo wet.\n'
p577
aS"It's always important to have two balls, so that when he's playing with one, you've got the other.\n"
p578
aS'Just stick it in so you can come already!\n'
p579
aS'NOOOO, you went in too deep.\n'
p580
aS"I can't stop it when you're going so hard!\n"
p581
aS"Stop it, you're making me all wet!\n"
p582
aS'This position is really rough on my back.\n'
p583
aS'I should blow this as hard as I can\n'
p584
aS"It's so big I doubt I can fit it all in my mouth.\n"
p585
aS"Ahh! It's all over my face!\n"
p586
aS"Ahhhhh! It just keeps coming! It's coming again!\n"
p587
aS'Yeah, the head is too big!\n'
p588
aS'I can blow good!\n'
p589
aS'Now see this wood is hard. If you run your hand down the side you can feel the density and firmness\n'
p590
aS'There is no way that will fit in there! Just look at how tight it is!\n'
p591
aS"Adam stop spraying my face! You're making me all wet!\n"
p592
aS'Long strokes are more efficient.  You can finish in half the time.  Short strokes tire you out faster.\n'
p593
aS"I keep sucking but it's not coming!\n"
p594
aS'Is it going to get bigger?\n'
p595
aS"I scream when I'm wet!\n"
p596
aS"Wow! That's even bigger than I thought!\n"
p597
aS'How about we finger it first?\n'
p598
aS'it is a little tight but your small so you could fit.\n'
p599
aS"Get your hand out of there! You're gonna stretch it out!\n"
p600
aS'push in, pull out, push in, pull out.\n'
p601
aS'Aww, Daniel, I told you you should have put it in more!\n'
p602
aS"I don't know, it's so hard.\n"
p603
aS"I didn't get my mouth over it before it shot out, but it all shot in my mouth anyway.\n"
p604
aS'If this were any harder it would break my fake teeth!\n'
p605
aS'Because I want something small that I can suck on.\n'
p606
aS"I don't know where to put it.\n"
p607
aS'Just sit on it till he comes and goes away\n'
p608
aS'Chris, how can I do you, you are too big!\n'
p609
aS'stop playing around and get into position\n'
p610
aS'Ok coach, it just hurts my back to do this\n'
p611
aS"I didn't realize it squirted that much\n"
p612
aS"you do know I'm faking it right\n"
p613
aS"We don't need this since you already know how to eat out.\n"
p614
aS"I can't get in in gently and I don't wanna just shove it in \n"
p615
aS"That was pretty big, but it could've been bigger!\n"
p616
aS"No no, its way to thick and those heads are massive, they'll penetrate too far. You have to pull it out before it does any damage.\n"
p617
aS"It's too big! I can't put two hands around it!\n"
p618
aS'you have to squeeze it before you put it in.\n'
p619
aS"No! You're doing it wrong! You're sticking it in the wrong hole!\n"
p620
aS"that's never gunna work\n"
p621
aS"It will do, I've fit bigger ones in.\n"
p622
aS'Oh my god, this just keeps getting harder and harder!\n'
p623
aS"I've been sucking on this thing all day and it doesn't feel any smaller, just stickier!\n"
p624
aS"He gets so deep. Nobody's ever been that far inside, and it feels so good to just release it all for him!\n"
p625
aS"Is it gonna be longer than 6 inches because that's all I can do.\n"
p626
aS"That's it, I give up. It was fun at first but then it just got harder and harder, and I kept falling off it.\n"
p627
aS'you need to pull it out, lick it, and stick it back in!\n'
p628
aS"Okay you just gotta swallow it fast 'cuz if you let it sit too long in your mouth, it will be too creamy to swallow!\n"
p629
aS"UGH mine won't fit.\n"
p630
aS"No matter what I do I'm never going to get this to fit in here!\n"
p631
aS'How do you eat pumpkin seeds? Do you bake them with seasoning first?\n'
p632
aS"No, I just suck on 'em and swallow.\n"
p633
aS"I can touch it, but i can't bang it\n"
p634
aS"You're gonna get in it and you're gonna like it.\n"
p635
aS"If there's anything I'm an expert at, is making things fit into small spaces!\n"
p636
aS'That was awesome but, now I am all wet.\n'
p637
aS'This is gonna be good! I can already feel it!\n'
p638
aS"I'm trying but its kind of hard to do with only one hand.\n"
p639
aS"It's shrinking, I can feel it!\n"
p640
aS'Just stick it in the hole.\n'
p641
aS"Just put it in your mouth. I'm sure it tastes better than it looks.\n"
p642
aS"It's harder when it's longer, isn't it?\n"
p643
aS"Honey, I don't think this is going to fit!\n"
p644
aS"Jacob, put your bone back in your pants, and don't let me see you playing with it for the rest of the night.\n"
p645
aS"It's huge! It'll never fit inside. Maybe we should grease it?\n"
p646
aS"WOW! That's a really big squirt!\n"
p647
aS"i have 2 balls in my mouth, I'm gonna put another in and blow\n"
p648
aS"Oh my god, I'm shaking so bad, it won't go in!\n"
p649
aS'suck it up and stick it in, I have places to go.\n'
p650
aS'Oh that got bigger than I thought\n'
p651
aS' Do you go all the way or do you pull out?\n'
p652
aS"That's not fair, this one is three times more likely to give you head than tail.\n"
p653
aS"Oh God! There's just so much of it! I can't swallow it all at once!\n"
p654
aS'It was long and hard...I mean 2 late nights in a row.\n'
p655
aS'Looks like someone trimmed that bush.\n'
p656
aS'Crap, now I have all this white sticky stuff on my hands!\n'
p657
aS"I cant believe how small he is, I thought he'd be bigger.\n"
p658
aS'I was going to tell you not to blow your load too early.\n'
p659
aS'oops, I think my tailpipe just got stuffed.\n'
p660
aS'I could do this for hours!\n'
p661
aS"I can feel it, but I don't know who it is.\n"
p662
aS"can you help me with this? I can't get my hand around it.\n"
p663
aS'you just had to open your mouth and then he came.\n'
p664
aS"I don't want to suck on this anymore, but since I don't have anywhere else to put it, I guess I might as well just put it back in my mouth, at least it still tastes good.\n"
p665
aS'my hands are busy just put it in my mouth.\n'
p666
aS'you just have to shove it in &amp; pump hard.\n'
p667
aS"He can't get it in! His hand is shaking too much!\n"
p668
aS"Find the hole with the tip and put it in. If you miss you will hear a sound. Push hard and keep it straight. Take your time so you don't mess up.\n"
p669
aS'give me three more inches.\n'
p670
aS'I love it when black guys go deep.\n'
p671
aS"yea I've been blowing all day and it just keeps on coming\n"
p672
aS"You stick it in and take it out, the second time is going to be harder. When you take it out the second time it may be sticky and wet, so don't play with it. Then the third time it will be smooth slick and easy to take out.\n"
p673
aS"It's hard being on top.\n"
p674
aS'How much wetter can you possibly want it?!\n'
p675
aS"Put it in deep and don't pull out.\n"
p676
aS"It's delicious.  So thick, and so juicy.\n"
p677
aS'Wow! It goes in easier when its wet!\n'
p678
aS"thats the thickest I've ever seen it.\n"
p679
aS"OMG it's so hard to get it all down!\n"
p680
aS"Wow these are the two hardest balls I've felt all day.\n"
p681
aS"it's okay though, I just swallowed it and kept going like a trooper!\n"
p682
aS"OH! Oh my God! I'm blowing all these guys!\n"
p683
aS"Yes! It's finally in!\n"
p684
aS'That was really deep Kevin.\n'
p685
aS'Dammit, it got stuck again!!\n'
p686
aS"yes I'll have mine white and twelve inches. I like the extra meat.\n"
p687
aS"I get so impatient, it's just so big and juicy all I want to do is swallow it.\n"
p688
aS"Nope, it doesn't fit. Too big.\n"
p689
aS'Your thing is too big for my hole.\n'
p690
aS"careful that one's really hard and slippery.\n"
p691
aS'God! Why is it so long!\n'
p692
aS"it might be in there, but it's so small I don't feel it.\n"
p693
aS'Oh God, it squirted all over my face!\n'
p694
aS'sometimes when you ride too long, you get wet\n'
p695
aS'Hey we came at the same time!.\n'
p696
aS'Oh my gosh! Does all that have to fit in there?!?\n'
p697
aS'Its too big for me to work with\n'
p698
aS"I'm still wet from this morning!\n"
p699
aS"I was standing there and was like, I always ride the big one, why isn't it coming?!\n"
p700
aS'The more I play with it, the harder it gets!\n'
p701
aS'Man this stick is stiff.\n'
p702
aS"Don't press too hard or you'll break it.\n"
p703
aS"I give up, I don't know how to turn you on.\n"
p704
aS"Hey! I can't find the other ball, there is only one here\n"
p705
aS"oh f*** i cant take this, it's hurting my butt.\n"
p706
aS'Where do I stick this thing?\n'
p707
aS"Stick it in that hole, but hurry up, I'm getting wet!\n"
p708
aS"Why is your stick shorter than the rest I've seen?\n"
p709
aS"Yes, I'm good at oral!\n"
p710
aS'do you need help laying that pipe? Or can you get it in there?\n'
p711
aS'It was absolutely huge,much bigger than any of the ones you would have seen before.\n'
p712
aS"I can't take it, its too long!\n"
p713
aS' it was big and black so I had to run.\n'
p714
aS"Be careful! Don't stick the whole thing in your mouth, it's too big and you'll choke!\n"
p715
aS'when he did it, it hurt so bad i teared, but then after the pain subsides and now it only hurts if i touch it.\n'
p716
aS"Just as soon as I'm done doing her, I'll come. Hold on!\n"
p717
aS"I can't get it to go in, I don't know what to do.\n"
p718
aS"Now that's some good fingering.\n"
p719
aS"Don't you dare put that thing back in there!\n"
p720
aS'this is the longest problem ever!\n'
p721
aS"I've seen longer.\n"
p722
aS" It's stuck again, help me get it out!\n"
p723
aS" This thing is huge. There's no way I'm gonna fit all this in my mouth.\n"
p724
aS'Slide in all the way.\n'
p725
aS"Three will do me... I had six once and couldn't walk.\n"
p726
aS"It didn't fit in mine either but I just stuck it in.\n"
p727
aS"Sarah get me a wet paper towel,  I got it all over my leg and it's dripping\n"
p728
aS"Oh, I'm just going to give it to you orally.\n"
p729
aS'What the hell is wrong with you?! I couldnt get all that meat in my mouth even if i push it in all the way down my throat.\n'
p730
aS"Mr. Colby's was really long and hard, but Mr. Morris's was short.\n"
p731
aS'its too soft to blow!\n'
p732
aS'Once it gets harder, its easier to blow.\n'
p733
aS"damn! I'm a good blower!\n"
p734
aS"Keep trying. It's had a lot of fingers in it before.\n"
p735
aS"I don't like them when they are soft, I like them when they're firm and hard.\n"
p736
aS"I can't get it in there!\n"
p737
aS'My favorite treat is the Ho-Hos. Those ho-hos are fully of yummy white cream.\n'
p738
aS'I love the ding-dongs. They are long and feel amazing when they enter your mouth!\n'
p739
aS"It's not longer, it's just harder\n"
p740
aS'Stop jerking it so hard,its gonna break!\n'
p741
aS"It might be a couple of minutes, I can't get it in!\n"
p742
aS'Do we have to stay on top of you the entire night?\n'
p743
aS'Oh man! I squirted!\n'
p744
aS"That was so bad I'm gonna give you another chance.\n"
p745
aS"It's dragging on the floor!\n"
p746
aS"There's too much meat in my taco!\n"
p747
aS"it'll grow bigger, even if it might look weird at first, just let it grow.\n"
p748
aS"omg! that burned my throat.. seriously i couldn't swallow.\n"
p749
aS'Why is it every time you come, you get wet?\n'
p750
aS"I'm always banging something.\n"
p751
aS"Its longer then I'm used to, but I handled it okay.\n"
p752
aS'you know i really feel like there is something powerful between my legs.\n'
p753
aS"yeah, just give it a tug and it'll come.\n"
p754
aS"Yeah, but I've blown bigger ones, just didn't take pictures.\n"
p755
aS"I love it so much! Look, it's pink on the inside!\n"
p756
aS'KEVIN! Stop slapping it like that! Just smoothly slide it in!\n'
p757
aS'Ugh, you got it all over me!\n'
p758
aS"It's not my fault! You pulled out too fast!\n"
p759
aS"Ugh! His head just won't fit! It's too big!\n"
p760
aS"it's a white anaconda!\n"
p761
aS'You got it all over my face and in my hair, stop spraying all over me.\n'
p762
aS"its not long. It won't take you a lot of time\n"
p763
aS'I touched it and was all hard!\n'
p764
aS"I can't get it back in.\n"
p765
aS"It's okay, you can put two in at once.\n"
p766
aS"it turns me off because it's so thick but it's still pretty good.\n"
p767
aS"I shouldn't yell or it might come in my mouth.\n"
p768
aS"It's hard to get really deep.\n"
p769
aS'Go ahead and come.\n'
p770
aS"I can't stuff it in there. I need you to help me.\n"
p771
aS'I want the thickest one!\n'
p772
aS"It's not working.\n"
p773
aS'You just need to stick it in there real good.\n'
p774
aS'Are you using the one or two finger attack?\n'
p775
aS"it's fun to play with, but I don't wanna stretch the hole.\n"
p776
aS"It's full! I can't fit anymore in it.\n"
p777
aS'i felt it penetrate, but once it was in and it released all the liquidy stuff i couldnt feel it. But now it aches like f*ck\n'
p778
aS'Everytime I take it out this stuff gets all over my mouth\n'
p779
aS'Awww man, I wish it was longer!\n'
p780
aS'you just need to stick it in and push!\n'
p781
aS"Wow it's a tight fit to get in there hey?\n"
p782
aS"Why would anyone want to shove something that big in someone's mouth?\n"
p783
aS'I just put the whole thing in my mouth and suck on it.\n'
p784
aS'YOU DID IT TOO HARD!\n'
p785
aS'Well at least I can fit in now\n'
p786
aS"I don't know how it got so big and heavy, but it went in good!\n"
p787
aS'God, its just so big. And it bulges out there!\n'
p788
aS'That was the least suspenseful thing I ever saw. There was no climax, and I think the whole production lacked energy.\n'
p789
aS"Damn that shit is going back and forth so fast i can't even see it.\n"
p790
aS"Come on guys, 69 isn't even that hard. Someone do 69 infront of the class now.\n"
p791
aS'It only takes the skinny ones too, every time I try putting a bigger one in that tiny hole, the entire thing gets jammed!\n'
p792
aS"Holy moly! Six inches?! That's insane!\n"
p793
aS"I didn't see him coming so I had to switch sides.\n"
p794
aS'You need a wet finish.\n'
p795
aS"Everyday I get rode on. First thing in the morning, I wake up and someones riding on me, its not just guys either, girls too. I get rode on long and hard and they just won't stop. I'm just tired of being ridden on while I'm not ready\n"
p796
aS'O.K. guys, this is as hard as I can make it.\n'
p797
aS"I know that took a lot of bouncing around, but aren't you glad that we did it together instead of you having to do it alone?\n"
p798
aS'wow, ur fast \n'
p799
aS'That hole is so hairy!\n'
p800
aS'Would you like the black one or the white one?\n'
p801
aS"It doesn't matter. I'll suck on both.\n"
p802
aS'Why are you so hard right now?\n'
p803
aS'No! I want to see balls!\n'
p804
aS'it was long and hard and boring\n'
p805
aS"you have to go in hard and come out wet and breathless. You'll feel good when you're done.\n"
p806
aS"That's okay we can just use lotion to get it off\n"
p807
aS'just shut up and shove them in!\n'
p808
aS"It's too hard to eat off of them.\n"
p809
aS'You have to suck on it to make it a little bit to make it more slippery.\n'
p810
aS'Get it out! Get it out! It hurts!\n'
p811
aS"I don't like when too much gets in my mouth at once.\n"
p812
aS"You can control that by sucking.But that's a big hole!\n"
p813
aS'I love Dicks!\n'
p814
aS"I know that as soon as I take my top off, he's going to come.\n"
p815
aS"I was gonna grab the biggest one, but on an impulse I grabbed the small one, and it was the best choice I've ever made.\n"
p816
aS'squeeze it hard..massage it...pull it till all the color comes out...yes it can get a little dirty\n'
p817
aS'oh i loved it, i could ride that thing all day long\n'
p818
aS'keep comming until I say stop.\n'
p819
aS"i'll be wet before i get it up\n"
p820
aS"You jerk him 'til he comes.\n"
p821
aS'Oh sorry, that just fell out my box.\n'
p822
aS' oh wow that was so huge, but I just had to put it all in my mouth\n'
p823
aS'I have a black man inside of me! All the time!\n'
p824
aS" I like the taste of them, I just don't like the feel of them in my mouth so I just suck on them.\n"
p825
aS" i can't feel my thighs or my ass, but i want to go again!\n"
p826
aS'omg these are so hard to blow!\n'
p827
aS'I know you end up feeling light headed, its easier if you hold them tighter otherwise they end up going all over the place.\n'
p828
aS'Do you have any idea how long and hard I had to work to get her to come? Let alone, twice!\n'
p829
aS'do it like I did it last night, knees on the floor.\n'
p830
aS"if their toes didn't curl you didn't do it right\n"
p831
aS"Man, this is a lot harder then it looks, i can't do it.\n"
p832
aS"just keep trying, when i did it first i wasn't good either then i got better.\n"
p833
aS'but u have to do it in front of me and put it all in your mouth.\n'
p834
aS'Wait, why is it all over my face and not all over yours?\n'
p835
aS"Size doesn't matter, it's how you use it\n"
p836
aS'Dont you dare take that out of there!\n'
p837
aS'excuse me, how do i suck on these balls?\n'
p838
aS'Wow, you got me all wet and sticky.\n'
p839
aS"I don't like a mouthful, I just like the taste.\n"
p840
aS'Can we do this without talking?\n'
p841
aS'is it suppose to hurt like that?\n'
p842
aS'it will only hurt the first couple of times.\n'
p843
aS"oh it doesn't matter the longer the better.\n"
p844
aS'He would make a terrible father because as soon as it came close to the end he would just pull out.\n'
p845
aS"My hands are too small and it's too big, I can't grip it\n"
p846
aS'can you go down, i need to finish\n'
p847
aS"It's just not fair, he keeps dangling it in my face and he just won't give it to me!\n"
p848
aS'You know how that thing pops up? It was very little.\n'
p849
aS"You want to go in there, don't you big boy?\n"
p850
aS'Oh, you really gotta put the whole thing in your mouth, or else all the stuff comes out all over ya\n'
p851
aS"I just can't seem to get it in the hole!\n"
p852
aS"I'm Coming, I'm Coming. It just takes soooo long for me to get there.\n"
p853
aS'ewww its all dirty, i dont wanna lick that\n'
p854
aS"I'm not even going to touch that one I'm just going to sit on it.\n"
p855
aS'There should be a hole right around here where you can stick the staff in. Hopefully it fits.\n'
p856
aS"Stop forcing me in already! When I'M ready I'll come!\n"
p857
aS'how big is this thing gonna get?\n'
p858
aS"So I guess you can't be trusted with anything bigger in your mouth,\n"
p859
aS"Put it in, you'll like it.\n"
p860
aS"They're going to keep coming like a rain that never ends.\n"
p861
aS"I'm sorry, I can't swallow this one.\n"
p862
aS'Could you whip it out for me?\n'
p863
aS"18 inches puts it here, we're gonna have to go in a little farther.\n"
p864
aS"Hey, just because you got off doesn't mean I did.\n"
p865
aS'If it went any deeper i probably would have thrown up all over it.\n'
p866
aS'Tony! When you come use the backdoor\n'
p867
aS'He whipped it out, tried to squirt it in my mouth, but he missed and got it all over my face!\n'
p868
aS"Now he's taken it out. It looks pretty big.\n"
p869
aS"It's all stretched out from your giant head.\n"
p870
aS'Stop, the more you rub it, the more it comes!\n'
p871
aS"I need to get better at blowing, I'm choking on it too much\n"
p872
aS'Careful, its real slippery in there\n'
p873
aS"I'm so glad you made me come.\n"
p874
aS"You keep trying, but you can't get it in!\n"
p875
aS"it's not even wet yet, and u wanna go faster?\n"
p876
aS"Give me the thingy, I know how to work it,I'll just stick it in.\n"
p877
aS"you didn't let me finish!\n"
p878
aS"I really had to push that thing in because it wasn't fitting.\n"
p879
aS"This is great. It's one quick gulp then you're ready for another.\n"
p880
aS"I guess we'll have to do it orally.\n"
p881
aS"Oh don't worry, when they see you coming they pull it out.\n"
p882
aS'I did a load of blacks last night, they were all in there...\n'
p883
aS"I'm a little suprised, its not usually that quick.\n"
p884
aS"Just for that, I'm gonna whip it out and play with it.\n"
p885
aS'Its a little stiff, but I can manage\n'
p886
aS'i cant get it out of my throat! its like stuck in there!\n'
p887
aS' Yeah, look how wide her mouth opens!\n'
p888
aS'i was just about to come and then you knocked\n'
p889
aS"be careful, it's all wet and slippery.\n"
p890
aS'WOW you must suck fast!\n'
p891
aS"My backdoor is not working, you'll have to use the front door.\n"
p892
aS"Look at the size of the things they're blowing! It's huge!\n"
p893
aS'Wow, I put the whole thing in my mouth.\n'
p894
aS'I like to be on top of you to make sure you finish the work\n'
p895
aS'omg it just popped out in my face!\n'
p896
aS"No, it's ok because i don't bite, I only suck.\n"
p897
aS"it better taste good, cause it's coming fast.\n"
p898
aS'Wow I hope i can fit it in my mouth\n'
p899
aS'it gets stuck a lot, so you have to push really hard.\n'
p900
aS"It's long but not hard\n"
p901
aS"Don't worry, I can totally handle a big one.\n"
p902
aS"Don't shove that big thing in my mouth!\n"
p903
aS"Yeah, it's so big but my opening is so small.\n"
p904
aS"I'll do it later. I don't want him to come while I'm down there.\n"
p905
aS"My throat's numb! I'm ready to go!\n"
p906
aS'Hurry up!\n'
p907
aS"It's not my fault! I can't make this thing blow any faster!\n"
p908
aS'We almost had a problem. I didnt think the hole was big enough.\n'
p909
aS'small on size, but big on pleasure\n'
p910
aS'Oh yes, the long, thick ones are hard to maneuver without suffocating.\n'
p911
aS'It keeps being dried up when I pop open a new one\n'
p912
aS"You can't dance beneath me when there's monster between my legs.\n"
p913
aS"I scream really loud when it's hard.\n"
p914
aS'Ugh! I keep sucking and sucking and sucking as hard as I can but nothing is coming out!\n'
p915
aS'just blow and finger.\n'
p916
aS' Its to big to fit in, unless I twist it the right way. Or maybe if it was wet it would slide in better!\n'
p917
aS' You have to jerk it off to get it to come out\n'
p918
aS'wow thats a big wiener to be putting in your mouth.\n'
p919
aS'We have to make this a quickie, in and out.\n'
p920
aS'I wanted to take a picture but I made it too big.\n'
p921
aS'stick it in slowly then pull it out really fast.\n'
p922
aS"My fingers are too small, my hands cramp up! It's just too hard!\n"
p923
aS'I think Zach just put a load in\n'
p924
aS"oh it doesn't matter the longer the better.\n"
p925
aS"I'm better on bottom.\n"
p926
aS"oh my god, it's way to big it won't fit.\n"
p927
aS"If it gets stuck, don't worry. Just wiggle it a little, and it will come out.\n"
p928
aS"If it weren't for me half these guys wouldn't even have wood\n"
p929
aS"I can't wait to put this in my mouth!\n"
p930
aS"Let's play the PS2, at least with disks when it doesn't work you don't spend 20 minutes blowing just to be screwed.\n"
p931
aS'It was horrible...probably the most disgusting thing I ever put in my mouth! It just kept gushing out.\n'
p932
aS"just pull it out while you're sucking on it.\n"
p933
aS'Dammit it fell out.\n'
p934
aS'You may be able to get it to fit, but it is a really tight space.\n'
p935
aS'Oh, I like this one better. Its bigger!\n'
p936
aS'liked to suck on them until they get soft.\n'
p937
aS'Great job. You were really pounding those balls out there.\n'
p938
aS"it's dripping down my leg\n"
p939
aS'from up here it sounds like your sucking start blowing.\n'
p940
aS"I'll have a 12 inch Italian.\n"
p941
aS"OMG it's so big I can hardly get my mouth around it!\n"
p942
aS"It is really big, but I find if you got at it from the side it's a little easier.\n"
p943
aS"I'm too tired to get that off with my hand.\n"
p944
aS'TWSS\n'
p945
aS'Stop putting that white stuff all over my face\n'
p946
aS"Fine, don't pull out, see if I care!\n"
p947
aS"It's just so hard being on my knees doing it!\n"
p948
aS"It's okay, I'll let you put it in anywhere you want the first time.\n"
p949
aS"Hurry up and put more in your mouth. You'll never finish in time at that rate.\n"
p950
aS"Oh c'mon, take it out again and let me play with it!\n"
p951
aS'32 inches is too big for the bedroom.\n'
p952
aS'lubricate the rod before putting it into the hole.\n'
p953
aS'That sounds painful.\n'
p954
aS"Well, it's not so bad once you get in your mouth.\n"
p955
aS'how about I rub and you squirt?\n'
p956
aS'what are my chances of getting head 3 times?\n'
p957
aS"Oh my God, if you're going to come halfway in then just stay out!\n"
p958
aS"Why won't it go in the hole??\n"
p959
aS'OH NO! It was finally in and it slipped out, where is it, where is it?\n'
p960
aS"It's right here between your legs!\n"
p961
aS"I've been playing with it for a while but all I could get was a little squirt.\n"
p962
aS"Wow that was pretty good, but i bet you can't do it twice in a row.\n"
p963
aS'This morning I blew it so hard I thought I was going to throw up.\n'
p964
aS"It's big enough you can feel it.\n"
p965
aS'come one man, two straight days will wear a girl out!!\n'
p966
aS'Wow baby, you sure were a trooper taking all those balls to the face\n'
p967
aS"Moooom, it won't fit!\n"
p968
aS"Just shove it in, honey, it'll be okay\n"
p969
aS"Yea it's been awhile since I've done it, so I bled a lot, but now it feels great!\n"
p970
aS'You suck and suck and suddenly you get a load in the back of your throat\n'
p971
aS"This is way too small, it just doesn't feel right.\n"
p972
aS'So how do you know when to pull out?\n'
p973
aS"I can't fit it in my mouth! The cream keeps coming out and getting all over my hands!\n"
p974
aS'Jeez, how many inches is that?\n'
p975
aS'Damn, this is a tight fit.\n'
p976
aS'UGH! When u screw it the stuff comes out!\n'
p977
aS"Aww man, now i've got a huge stain on my shirt from a big old piece of wood.\n"
p978
aS'I was waiting for you to stick your hand up in there\n'
p979
aS' your rod and shaft comfort me in great pleasure\n'
p980
aS'I can only eat a six inch\n'
p981
aS"But it doesn't feel that long.\n"
p982
aS"I'm going to just close my eyes, lean back, and wait for you to finish.\n"
p983
aS'i like to eat it plain because its long and juicy once you lick it enough.\n'
p984
aS'Does he really need to back up that far to pull out?\n'
p985
aS'Wow that took a lot longer than it should have.\n'
p986
aS"Well you stuck it in there and I couldn't get it out.\n"
p987
aS"If you don't open your mouth, it WILL go other places!\n"
p988
aS'I like the bigger ones cuz they last longer\n'
p989
aS'Hold on this will be amazing, if I can find it.\n'
p990
aS'The more you wiggle, the tighter it gets.\n'
p991
aS'remind me that I need a 12 inch piece of wood.\n'
p992
aS"Oh yeah I'm fine. I just had something stuck in my throat\n"
p993
aS'get inside, you can fit!\n'
p994
aS"Try hard, Do your best it's only a test of how well you can do.  If you need help measuring get some help.  You want to be good when your doing it.\n"
p995
aS"That's easy! You suck on it, the stuff comes into your mouth, and then you swallow.\n"
p996
aS"I just kept shaking it, and shaking it,and I even pulled, but it just wouldn't shuffle.\n"
p997
aS'Use two hands, and put all your strength into it\n'
p998
aS"You don't SUCK it, you BLOW it.\n"
p999
aS' it needs to be long and fat.\n'
p1000
aS"Now don't jerk it too much or it'll fall off.\n"
p1001
aS"Oh my god it's so big! And furry!\n"
p1002
aS'Stick it in, then take it out in 20 minutes.\n'
p1003
aS"I can't take it. It's too big.\n"
p1004
aS'Stop talking and put some effort into it!\n'
p1005
aS"Wow this is big, i don't know if i can fit this in my mouth.\n"
p1006
aS'We were grabbing some balls and they kept slipping out of our hands\n'
p1007
aS'Oh my god! I love the taste of this!\n'
p1008
aS"It's too big we have to move it around to get it out.\n"
p1009
aS'Now I can handle 3 inches or so, but 6 is just too much to handle.\n'
p1010
aS'Dig deeper! Finish hard!\n'
p1011
aS" I'm having fun getting it off, but it keeps going back in my face\n"
p1012
aS"it was too soft. I couldn't do anything with it.\n"
p1013
aS"It's not that hard just really long.\n"
p1014
aS'just put all three in your mouth!\n'
p1015
aS'great, there were so much of it, I got it all over my face!\n'
p1016
aS'Too big, I could ride that thing like a horse.\n'
p1017
aS'You went in the out door! Not allowed!\n'
p1018
aS'just relax and blow\n'
p1019
aS"Is that the hardest stick you've got?\n"
p1020
aS'Can you do 69 for me?\n'
p1021
aS"That's very good, I'm so glad you asked. Let's do 69!\n"
p1022
aS'I took it out of my mouth and it sprayed all over me\n'
p1023
aS'Yeah but I like it when it hurts\n'
p1024
aS'When are you going to pop up?\n'
p1025
aS"Wow that's a really big dog.\n"
p1026
aS"I guess so, but I've seen bigger.\n"
p1027
aS'Take it out before you shoot it!\n'
p1028
aS'it was so much bigger than I expected!\n'
p1029
aS"Just keep on beating it. You're not putting it in anytime soon.\n"
p1030
aS' It looks like we have an uneven amount of people, some of us will have to form a threesome.\n'
p1031
aS"No I take it either way as long as it get's the job done.\n"
p1032
aS"What happens if they don't grow?\n"
p1033
aS'Just put it in and hope for the best.\n'
p1034
aS"Holy sh*t! It's so large and tender! I can barely fit my hands around it!!\n"
p1035
aS"It's so fun to squeeze, and hold, and play with. And! It smells good! I never thought I would find such perfection!\n"
p1036
aS'Oh that was a great entry boys.\n'
p1037
aS"Don't worry, it'll be quick and painless. I can do you right now, actually.\n"
p1038
aS"Well, we're not going to just shove something in, jerk it around, and then pull it out again\n"
p1039
aS'This stick is too long to aim at my lips.\n'
p1040
aS'it would be better with more people but one-on-one could still be fun\n'
p1041
aS'Does it matter where I stick this?\n'
p1042
aS'You can stick it where ever you want!\n'
p1043
aS'That guy had a huge load.\n'
p1044
aS"Let me know when you're getting off because I want to come at the same time.\n"
p1045
aS"You'd be amazed by what i can get done in 5 minutes\n"
p1046
aS"It won't come out!\n"
p1047
aS"You know, you can't fit an entire orange in your mouth.\n"
p1048
aS"You think your mouth's big enough, but it's not.\n"
p1049
aS'This thing has been poking me all day.\n'
p1050
aS"Well, if it will get you to come, sure it's my first time.\n"
p1051
aS'Is it hard to blow?\n'
p1052
aS'if any of you need a good fingering, John would be happy to help.\n'
p1053
aS"Damnit, old man! I wish you'd pulled out 2 minutes sooner!\n"
p1054
aS'put it back in so it can get hard again.\n'
p1055
aS'I will turn it all on, you put it in, and ill do all the work\n'
p1056
aS'Come on, put your fist in.\n'
p1057
aS'Push in and pull out slowly\n'
p1058
aS'Get out of my bush you little bastard, i just trimmed\n'
p1059
aS'Wow, it shriveled up quickly.\n'
p1060
aS"It's a pretty big hole...I put my finger in it.\n"
p1061
aS"Wow...that's wet!\n"
p1062
aS'Woah, yours is a long one!\n'
p1063
aS'Boy, the next time you come inside, you better have a good reason.\n'
p1064
aS"Wow, it's so short its embarrassing!\n"
p1065
aS'I love anything with balls.\n'
p1066
aS'My hands hurt, its cold and these balls are too hard.\n'
p1067
aS"I know. You're not supposed to rub off on me.\n"
p1068
aS"Gosh I'm so tired of waiting on this im just gunna shove it all in my mouth to get it over with!\n"
p1069
aS"wow' you're going really slow.\n"
p1070
aS"that's because I'm doing it with one hand.\n"
p1071
aS'Oh, my god Nick, you just about made me spit that out, like, EVERYWHERE.\n'
p1072
aS'you look exhausted how many of those did you take?\n'
p1073
aS'Wait how many fingers do I use for this?\n'
p1074
aS'Well I normally use three, but whatever you want.\n'
p1075
aS"I'm not good at this, it's too hard to blow. \n"
p1076
aS"Omg, it's soo hot. It's all over my mouth and down my throat!\n"
p1077
aS'Oh yeah, Oh yeah, i LOVE the white stuff, its so delicious!\n'
p1078
aS'My boyfriend squirted something on me.\n'
p1079
aS'You need to be long and hard or else if wont go in right and you wont be able to pull out right\n'
p1080
aS"We can't fill 'er up because our hose isn't long enough.\n"
p1081
aS'Are you done in that hole? \n'
p1082
aS"It was hard. And something I'd never done before.\n"
p1083
aS'Can you fit your whole fist in there?!\n'
p1084
aS'Getting pounded by a swift and smooth approximate 10". 75% definite whiteout conditions. There\'ll be a huge amount of white semi-liquid substance everywhere once the activity has finished near midnight. Maybe even missing work tomorrow from getting hit so hard.\n'
p1085
aS'Its too tight i cant get in.\n'
p1086
aS'No its small, i can get it in\n'
p1087
aS"You're in the right spot, just try to get in there deep.\n"
p1088
aS"This one's nice and thick.\n"
p1089
aS"Then be quiet, and either spread out, or I'll spread you out myself.\n"
p1090
aS"Why won't it go in? It's so small!\n"
p1091
aS'like he only came round for an hour and a half today but he still came\n'
p1092
aS"It won't go in! Either it's too big or the hole is too small!\n"
p1093
aS'Do that thing with your fingers, it needs to be a little larger.\n'
p1094
aS'There we go. It took us three tries, but we got it up and going.\n'
p1095
aS"Guys are you sure that you wanna go like that, I'm free, I have nothing better to do and if you want I can give each of you a ride if you guys want, especially you michael, you're my favourite.\n"
p1096
aS"You know that i'm just going to keep doing this all day, right?\n"
p1097
aS"It's coming out little by little. Coming out squirt by squirt.\n"
p1098
aS"Haha don't bend over, or you'll be screwed!\n"
p1099
aS'I like to put the whole thing in my mouth at once\n'
p1100
aS"yea that's how i like it.\n"
p1101
aS'If I did that harder it would have gone everywhere!\n'
p1102
aS'You have to get it wet or else it will get sticky!\n'
p1103
aS"Wow, it's really short but it seems like you get so much power into in.\n"
p1104
aS"This is so hard, but I'm so hungry, I'd put anything in my mouth.\n"
p1105
aS"It's not big enough.\n"
p1106
aS"Really ? It's the biggest one I saw in my whole life ! \n"
p1107
aS'well I would need to wet it down before I slide down it.\n'
p1108
aS'OMG they are already hard, I just want to put it in my mouth right now!\n'
p1109
aS'There is one more to do, but it is really short.\n'
p1110
aS"Yeah, well, they're easier to blow when they're big.\n"
p1111
aS"I can't find the hole!\n"
p1112
aS'it might pop in your hand.\n'
p1113
aS'The little ones make it last longer.\n'
p1114
aS"just squirt it in my mouth, but make sure you aim, I don't want it to get all over my face.\n"
p1115
aS"shove it in deeper we don't want it slipping out\n"
p1116
aS"It won't go deeper because it's so big\n"
p1117
aS'Nah, I think he can squeeze it in.\n'
p1118
aS"I'm trying to angle it just right so I get more juices.\n"
p1119
aS"You can try! I've been sucking on this thing for ten minutes and haven't gotten anything.\n"
p1120
aS"it's easier to use your hand... it's faster\n"
p1121
aS"Right i'll go down on this one\n"
p1122
aS'Why do you have to put this one here? I think they look so much better without the rubber!\n'
p1123
aS"Don't pull it out yet! You're not finished!\n"
p1124
aS"I'll scream if you don't give it to me!\n"
p1125
aS'It feels soft, yours is so hard.\n'
p1126
aS"Who am I kidding, if it fits in my mouth I'll give it a go.\n"
p1127
aS"Houston, we have a problem. It's too big.\n"
p1128
aS'It is so hard, and impossible to make it very long.\n'
p1129
aS"don't think of it as hard, think of it as a fun experience.\n"
p1130
aS'Well, it was kind of thick and creamy and it was hard to swallow down...it kept getting stuck in my throat.\n'
p1131
aS"no its ok, you don't need to pull it out.\n"
p1132
aS'I want to wrap my fist around it, feel the hair between my fingers and just yank!\n'
p1133
aS"Don't make fun of me, he just got me so wet on that last ride.\n"
p1134
aS'The hole is too small, it wont fit.\n'
p1135
aS'Josh you could be on your second load if you would have done it right the first time.\n'
p1136
aS"Yeah, Pedro and I did it last night, but I'm not sure if it counted because he fell asleep half way through. I just kept going though, because I needed to get it done.\n"
p1137
aS'The Trojans were stronger and safer than ever.\n'
p1138
aS'oh my God, slow down this is just too hard.\n'
p1139
aS'you dont understand its really hard and I keep missing my mouth! it just wont go in while im moving!\n'
p1140
aS'Sometimes you have to hit it a few times to make it stay up. But once its up it stays there.\n'
p1141
aS'Ewww... Anything that comes out of a sack tastes terrible!\n'
p1142
aS"Well, I don't like the meat, but I like the flavor of the sauce.\n"
p1143
aS"Well, it's big and black...\n"
p1144
aS"If it wasn't wet, it wouldn't have worked!\n"
p1145
aS"I'm gonna go to the basement now and play with myself. Cya\n"
p1146
aS"Ow don't stick that up my butt, that hurts!\n"
p1147
aS'Okay, I need two large male parts!\n'
p1148
aS'aww, its all loose now!\n'
p1149
aS'I would be happy with 2 inches of penetration.\n'
p1150
aS'I felt it squirt all over my face.\n'
p1151
aS"you can't expect to just put it in, take it out, and it to be finished\n"
p1152
aS'Do you like salty nuts? Ive got plenty here in my hand\n'
p1153
aS"Let's wait until it gets thick before we put it in something.\n"
p1154
aS'I like the long, skinny ones. Those are very in.\n'
p1155
aS"I can't it's too tight!\n"
p1156
aS'stop blowing on it!\n'
p1157
aS"I'm not blowing anymore! I'm fingering!\n"
p1158
aS'I keep sucking but nothing will come out!\n'
p1159
aS'wow im getting really lightheaded from all this blowing!\n'
p1160
aS'Are you sure you want to continue unprotected?\n'
p1161
aS"It's too big! It won't come out!\n"
p1162
aS'Yeah, I always have to fake it with him too.\n'
p1163
aS'If it were just a little bigger we could all enjoy it!\n'
p1164
aS"Slow down, I can't hear you when I'm bent over and it's plugged in.\n"
p1165
aS"You can't just whip it out and be like, this is a meter.\n"
p1166
aS'Yeah, so I had to sit there and blow it really good so it would be dry.\n'
p1167
aS"it was so big it wouldn't fit in my mouth\n"
p1168
aS"Well, I can't do it as fast with my bad arm.\n"
p1169
aS'why the f*ck would you pull out right when im coming??\n'
p1170
aS"I wasn't expecting it to shoot up in my face like that\n"
p1171
aS'i love that stuff, squirt it right in my mouth\n'
p1172
aS"ok don't put to much down my throat, i don't want to choke\n"
p1173
aS"I can't get it in the hole! It's too hard!\n"
p1174
aS'I got in in the hole!\n'
p1175
aS'they should put rubbers on those things\n'
p1176
aS"i don't think you're going to get that out in time.\n"
p1177
aS'your nuts are stuck in my throat\n'
p1178
aS"God! You've been nailing me all day!\n"
p1179
aS"You got it in my eyes! They were open and now they're all wet!\n"
p1180
aS"It doesn't matter how big it is, just how much force you put behind it!\n"
p1181
aS'To open it, just finger it like this and push.\n'
p1182
aS"You gotta wiggle it around a little bit, it's kinda funky.\n"
p1183
aS'It wont work. Her hole is bigger than mine.\n'
p1184
aS"God, we've been doing this for, like, an hour and it's still stuck!\n"
p1185
aS"I didn't know if I was supposed to chew it, but it just busted all in my mouth! Now it tastes to bad to swallow.\n"
p1186
aS'Ugh! I always put it in the wrong hole!\n'
p1187
aS'it feels so good!\n'
p1188
aS"awesome now just keep doing what you're doing and we'll be done in a minute!\n"
p1189
aS'These Nerds are HUGE!\n'
p1190
aS'usually you have to jerk it a couple times before it does that\n'
p1191
aS'eww its all coming in my mouth\n'
p1192
aS'Ughhh, I finally managed to swallow it all.\n'
p1193
aS"Ew it's all wet and sticky!\n"
p1194
aS'wow, you are done already...?\n'
p1195
aS'What if it gets stuck in there?\n'
p1196
aS"I am going to have to do it sideways, it's just that big!\n"
p1197
aS'I just want it to vibrate hard enough so that I can feel it no matter what.\n'
p1198
aS"I'd pull mine out, but it's too hard to get out.\n"
p1199
aS'...their mouths stretched in passion.\n'
p1200
aS'this is starting to hurt my ass can we switch positions.\n'
p1201
aS"Watch, I'm gonna put it in that little slit.\n"
p1202
aS'i still use my fingers all the time\n'
p1203
aS'it starts around 11 pm and gets intense at 1 and stays like that till 3.\n'
p1204
aS'Some of them are harder than others, but play with them over the weekend and see how you go\n'
p1205
aS"Now, If you don't come, it's doubled!\n"
p1206
aS'Its not too hard. You just have to put it in the right place.\n'
p1207
aS'just stick it in and enjoy it!\n'
p1208
aS"But,I play with it all the time, I just can't stop.\n"
p1209
aS'put it in mine and see if it works\n'
p1210
aS"Ow that hurt! But it was fun so i'm going to do it again!\n"
p1211
aS'Well, they should have come sooner.\n'
p1212
aS'No one blows better than me!\n'
p1213
aS'I have cox on demand!\n'
p1214
aS'Travis! Just go down already!\n'
p1215
aS'This is so awesome i have three instruments playing in my box at once.\n'
p1216
aS'Yes, but she spit it out!\n'
p1217
aS'ugh, why do we have to do these balls, these are so slippery and big, I really like the dry and small balls.\n'
p1218
aS"I'm the same way. I just suck on it until it melts.\n"
p1219
aS"I don't know about your toothbrush, but my finger did a pretty good job this morning\n"
p1220
aS"I'm super sticky (I'm an art student and had been messing with glue all day) I'm dripping wet and the worst part is I assumed it wouldn't come until later on!\n"
p1221
aS'God! You guys are unloading on me!\n'
p1222
aS"Whew, this is a really tight fit but I'm about to get it off.\n"
p1223
aS'My finger needs a break\n'
p1224
aS"I'm pretty easy to please, you're the hard one\n"
p1225
aS'It was long, hot, and sweaty.\n'
p1226
aS'And then it started coming out of the bottom hole, so i had to lick it up before it made a mess\n'
p1227
aS'OW, why am I always the one taking balls to the face?!\n'
p1228
aS'She helped me put it in the back.\n'
p1229
aS"Oh please don't pull out before I get there.\n"
p1230
aS'Do you always have to be so rough?\n'
p1231
aS"I'm sucking but nothing is coming in my mouth!\n"
p1232
aS"UGH! I squeezed too hard, and it's gooey and all over my face.\n"
p1233
aS"You're a quick one.\n"
p1234
aS'Oh my God, it just squirted all over my hand!\n'
p1235
aS'It sucks because the grass is all wet. Slippery balls and yuckkk.\n'
p1236
aS'hey, how long is yours?\n'
p1237
aS"but I'm not good at oral!\n"
p1238
aS'This is longer than last time.\n'
p1239
aS'Well, you guys are growing up now, so it will be getting harder.\n'
p1240
aS'this is a ball-handling skill.\n'
p1241
aS'I knew it was coming but it surprised me anyway.\n'
p1242
aS"It's hard for you to slide into small spaces.\n"
p1243
aS"Sorry I squealed, that was the biggest one I've seen in a long time.\n"
p1244
aS'Grab me around the body here, now lean back and kinda thrust a few times... Just like that... A little more... Oh God that feels so much better. You can put me down now.\n'
p1245
aS'I was just happy I got him in there!\n'
p1246
aS"I'll stretch it until you come.\n"
p1247
aS'Oh look it finally came up!\n'
p1248
aS"you've got to make sure you shove that all the way in for it to engage.\n"
p1249
aS"I'll start slow and increase my performance.\n"
p1250
aS'Get on the bottom.\n'
p1251
aS'where should we put it?\n'
p1252
aS'Wherever you can find a hole.\n'
p1253
aS'yes go deeper\n'
p1254
aS"I keep trying to tell them that if they want it bigger than 8 1/2 inches, it won't work as well!\n"
p1255
aS"that sounds like a hand job i think you're the right person for that\n"
p1256
aS'ok this is gonna be very hard with four people, so who would like to suck first\n'
p1257
aS"That's beautiful too... with the big balls.\n"
p1258
aS'its packed in too tight I cant get it out\n'
p1259
aS"You have something down there I didn't know you had.\n"
p1260
aS'Oh god, ohh god, OH GOD! This is gunna be amazing!!!\n'
p1261
aS'i cant!! He needs to come FASTER!!\n'
p1262
aS"hun don't play with it, the more you do the bigger its gonna get.\n"
p1263
aS"Just because your done doesn't mean I am!\n"
p1264
aS"simply start at the base of the rump, rubbing your way out, and follow it to it's natural conclusion.\n"
p1265
aS"Be ready for the second one. There's no waiting.\n"
p1266
aS'five minutes is usually great, but sometimes I take it out early if it gets too hot\n'
p1267
aS"It's hard to get it flowing but once you do it's really nice.\n"
p1268
aS'Emily, pull out!\n'
p1269
aS"I know, I know, I never do. It's a habit.\n"
p1270
aS'Wow, that was a pretty big blast\n'
p1271
aS"Mr. Meyer, it's just too hard, and I can't bear it any longer. Can you just remove it?\n"
p1272
aS"You have to make me come again tomorrow, but I'll probably just sit around and watch you do all of the work.\n"
p1273
aS'You need to stay in longer, your pulling out too soon.\n'
p1274
aS"i can't play with this anymore, I'm all cocked out\n"
p1275
aS'Can that thing even spurt cream out anymore?\n'
p1276
aS"You can't just go in and pull out. You gotta stay there for a while. Also, keep it steady, nothing is worse than shaking. You may think you are doing a good job, but people don't like it.\n"
p1277
aS"This sucks I'm all wet and I don't know where I am\n"
p1278
aS'Good job, you put it in there!\n'
p1279
aS"He can't keep it up.\n"
p1280
aS'HEY FATTY, i get the top\n'
p1281
aS"Ouh, that's a honker. ...Yeah, wow you've really got a honker.\n"
p1282
aS"It's so big, look at all the white stuff coming out\n"
p1283
aS'Just shove it in as hard as you can!\n'
p1284
aS'You guys just keep coming.\n'
p1285
aS"No no! Go deeper! It's not all the way in yet!\n"
p1286
aS"But I'm not wearing protection!!\n"
p1287
aS"I can't get it back in the hole!\n"
p1288
aS'Why is he riding my butt so hard??\n'
p1289
aS"You're in good and deep now.\n"
p1290
aS"I heard you breathing. That's how I knew you were coming.\n"
p1291
aS"well I think it's in there but I'm not sure, it's really small\n"
p1292
aS'It just slides in so smoothly, and without any noise!\n'
p1293
aS'make sure to lick your reeds to keep them nice and wet.\n'
p1294
aS"Don't push it too hard, if it doesn't go in you must not being doing it right\n"
p1295
aS'Yeah, last week I beat my sister by putting 6 in my mouth, but then I started choking.\n'
p1296
aS"I know it's hard at first, but just try to relax and take it slow. You'll gain confidence and it'll get a lot easier.\n"
p1297
aS'has everyone finished writing this down? I want to rub this all off the board.\n'
p1298
aS"Because I don't want to get down on my knees.\n"
p1299
aS"Put it all the way in, but be sure not to release until you've pulled out.\n"
p1300
aS'Dude, I squeezed it and it shot up into the air and landed on my face!\n'
p1301
aS'Let me get wet real quick.\n'
p1302
aS'Did it go in?\n'
p1303
aS' i almost had that in my face\n'
p1304
aS"The white one doesn't taste any different then the black one.\n"
p1305
aS'Wait could you do that once more, real slow so I can watch.\n'
p1306
aS'Just stick it in there already!\n'
p1307
aS'dang this is huge! i can easily fit 3 fingers in here!\n'
p1308
aS'okay i have to stop this my fingers are getting numb.\n'
p1309
aS" it's to long. i don't know if this will work. It's just shaped so weirdly i don't know how they got it in here\n"
p1310
aS'Well I tried to get it all in my mouth before it made a mess, but it came out so fast.\n'
p1311
aS'it is the same but you have to suck instead of blow\n'
p1312
aS"make sure you bend your knees and grip it tight or we won't get anywhere\n"
p1313
aS'my butt is ready\n'
p1314
aS'Did you know you have a little hole right here? Do you ever play with it to make it bigger?\n'
p1315
aS"be gentle now you don't wanna strain yourself\n"
p1316
aS'its not funny it has happened to me and my lower back hurt for 3 days.\n'
p1317
aS"Everything was great, but your oral presentation didn't satisfy me enough\n"
p1318
aS"Oh My God i'm craving a foot long\n"
p1319
aS"I've never gotten one off that fast before!\n"
p1320
aS'Blow it harder, blow it like you mean it.\n'
p1321
aS'what are you doing! you are going to get my sheets wet\n'
p1322
aS"I've never done this hole before\n"
p1323
aS'would you stop using your hands and just stick the damn thing in!\n'
p1324
aS"everyone should want to have a big stick, but if you have one, you shouldn't go around telling people about it\n"
p1325
aS"Isn't it the biggest, best, most beautiful cock you have ever seen?\n"
p1326
aS'dude just stick it in this one, it accepts cash\n'
p1327
aS"ok guys, this thing is big and its super hard. so what we're going to do is hover right over it, tackle it, and then lower ourselves into it until it sprays. got it?\n"
p1328
aS'I thought it would be bigger!\n'
p1329
aS'Its not gonna fit, its oversized\n'
p1330
aS'i like licking that off first\n'
p1331
aS"I can't! It's so hard and my mouth is starting to hurt!\n"
p1332
aS'just stick them in any of the holes!\n'
p1333
aS"Man that was so fun! I learned so much and felt so good. I was hoping that it wouldn't end even though it was so long.\n"
p1334
aS"Dont spread your legs because I'm coming!\n"
p1335
aS'Wtf? You know I like the short fat ones!\n'
p1336
aS'Anything you can put in your mouth I can put twice as much!\n'
p1337
aS"It hurts a lot the first time it goes in, but it's a lot less painful the second time, and the third time you hardly feel it at all.\n"
p1338
aS"that's it babe... Pull out in front of everybody.\n"
p1339
aS"It doesn't have to be long, but it has to please me and it has to be easy for me to see.\n"
p1340
aS'Travis! knock it off, you got me wet, now finish already.\n'
p1341
aS'how long does it take to get hard?\n'
p1342
aS"It's huge!  It's like this long, and that big around.\n"
p1343
aS"Yeah. I put it in all the way...ohh, wait it's coming now.\n"
p1344
aS'I knew that was gonna be a good one as it was coming out of my mouth.\n'
p1345
aS'omg! were soo wet!\n'
p1346
aS"I dont know what that hole is for, I've never had to stick anything in there\n"
p1347
aS"Wow, that's the most impressive thing I've ever seen.\n"
p1348
aS'Because I always need something in my mouth.\n'
p1349
aS"You don't know what it's like to have these things hanging in your face all the time!\n"
p1350
aS"captain, we've got a breach in the lower level!\n"
p1351
aS"Damnit, you couldn't have pulled out 5 seconds ago?\n"
p1352
aS'You got to learn to work your mouth, and use your hands too.\n'
p1353
aS"I've been blowing this thing for two hours, and I've got nothing!\n"
p1354
aS"It's stuck between two balls and I can't yank it!\n"
p1355
aS'stick it in and keep it in till she comes!\n'
p1356
aS"i'm still waiting for it to go in\n"
p1357
aS'stop messing around in her shrubbery down there.\n'
p1358
aS'I was lying on my back in bed playing with it and it exploded in my face.\n'
p1359
aS"No! Don't pull out while I'm still coming!\n"
p1360
aS'And then I get to blow on a really long stick.\n'
p1361
aS"Just so you know, I'm going to choke this down for you.\n"
p1362
aS'Its very large and has a big thick protruding object. And even after 30 years it still produces the same orgasmic moment.\n'
p1363
aS'it hurts, but its a good hurt.\n'
p1364
aS"It got bigger, it won't fit back there\n"
p1365
aS"It's hot, warm and tastes so good in my mouth.\n"
p1366
aS"Don't hug him, you'll just get all wet.\n"
p1367
aS"How do you eat the foot-long? After six inches I'm stuffed!\n"
p1368
aS'Well, I like it both ways!\n'
p1369
aS'i was gonna shove it back in but i was afraid i would get electrocuted!!!\n'
p1370
aS'i tried to straddle it but it was too big.\n'
p1371
aS'hey man, you making my holes bigger?\n'
p1372
aS'put your fingers in all the holes.\n'
p1373
aS"You can just come, you don't have to eat.\n"
p1374
aS"CHAD, I'M COMING!\n"
p1375
aS'Why is everyone going so deep today\n'
p1376
aS'Oh good, I finally get to go down.\n'
p1377
aS'i like sucking all the flavor out till it turns white.\n'
p1378
aS'Wow! That thing is huge, there is no way that would ever fit inside my body!\n'
p1379
aS' STOP!! get out of my butt!!\n'
p1380
aS"Aaah! I'm on my back!\n"
p1381
aS"Sorry, I didn't know how hard to do it.\n"
p1382
aS'I nearly had that in my cleavage!\n'
p1383
aS"but then it'd be all dry and you couldn't spread it!\n"
p1384
aS"If you don't take it in the mouth, you know where it's gonna go.\n"
p1385
aS'You are not permitted to do that.\n'
p1386
aS'Nah, its just thick and squishy\n'
p1387
aS"You know, I can fit two in my mouth at the same time, but it's kind of awkward.\n"
p1388
aS"It's not a big load.\n"
p1389
aS'If ure going to come late, come in the back!\n'
p1390
aS"I hate putting it in the back because I can't see where the hole is.\n"
p1391
aS'Do you have anything else I can put in my mouth?\n'
p1392
aS'Hi, I need some caulk.\n'
p1393
aS'Try not to get so soft too fast.\n'
p1394
aS"Are you pushing it in far enough? That might be why it's not turned on.\n"
p1395
aS'I wanna blow next!\n'
p1396
aS"I can't stretch it over the thingy!\n"
p1397
aS"OH It's running down my leg, dammit now it's in my sock.\n"
p1398
aS"So that's why I'm not getting any.\n"
p1399
aS"Oh no, it's stuck! We're going to have to cut it off!\n"
p1400
aS"It's shorter than I remember!\n"
p1401
aS"Now, a lot of you are doing it or have done it before, so you should have some idea of what you're doing.\n"
p1402
aS"Just because she sticks her head in my crotch doesn't mean you can, too.\n"
p1403
aS'You gotta bend your legs to get the thing in the hole.\n'
p1404
aS"omg! we're soo wet!\n"
p1405
aS'Just sit on it, pull it and it should release.\n'
p1406
aS"It's rubber and it feels weird.\n"
p1407
aS" Oh god! There's a hole here too!! \n"
p1408
aS"so tonight's the night to make it dirty.\n"
p1409
aS"I like this one because it's skinnier, but longer.\n"
p1410
aS'people could stick things in there and jiggle them around and it could ruin the whole system.\n'
p1411
aS"Oh, it's moist, just the way I like it\n"
p1412
aS'i guess i just liked sticks better than balls\n'
p1413
aS"okay I'll give ya a quickie.\n"
p1414
aS"i know it's long and hard, but try to stick in there.\n"
p1415
aS'put your monster in here\n'
p1416
aS"I hate it when it doesn't come out, because you know it's just going to explode.\n"
p1417
aS'Damn, I lost my grip!\n'
p1418
aS'watch the tip it tends to squirt!\n'
p1419
aS'Bitch, you better not pull out\n'
p1420
aS'Wow it pops up quick!\n'
p1421
aS"I don't think I can fit another one in me, im just too full!\n"
p1422
aS'Every time I squeeze it, it squirts me in the face!\n'
p1423
aS'This is soo hard.\n'
p1424
aS"I know it's longer then usual, but don't be afraid of it\n"
p1425
aS'I love that stuff, give me some.\n'
p1426
aS"Come on, just squirt it in my mouth or i'll steal it from you and suck it dry.\n"
p1427
aS" dont push it too hard, it'll bleed.\n"
p1428
aS"just grab one and put it in your mouth, but be careful, it'll drip.\n"
p1429
aS"Man you're just too fast for me.\n"
p1430
aS'you can all go home and practice with your right hands.\n'
p1431
aS"I knew you were coming, but I didn't know you were going to do THAT!\n"
p1432
aS'It looks pretty huge and well-used.\n'
p1433
aS"Don't let it drip on the floor. Rub it on your hands\n"
p1434
aS'If you accidentally leave that unzipped, all your stuff will fall out.\n'
p1435
aS"don't get off until I tell you to.\n"
p1436
aS" you wanna get it right the first time, you don't wanna have to keep putting your cargo in and out and in and out cause something might break\n"
p1437
aS'You might wanna shove your hand down there, and see if you can find it before you get in.\n'
p1438
aS' can you fit that thing all the way in the back of your mouth?\n'
p1439
aS'something about it being ultra thick just makes it that much more filling.\n'
p1440
aS'I HATE it! He just came out of nowhere!\n'
p1441
aS"It's sore when I touch it and when you touch it\n"
p1442
aS"Now it shouldn't hurt, it just might be a little tight going in there. But once it's in there and going back and forth, there shouldn't be any pain. The only bad thing about it is the annoying grinding noise it makes!\n"
p1443
aS"I just can't wait to get that 6 inch in my mouth!\n"
p1444
aS'Oh sorry! I just blew in your face!\n'
p1445
aS'Go hard or go home.\n'
p1446
aS'I thought they were supposed to be bigger\n'
p1447
aS' Stop playing with your self and get on with it, come on boys i want this to be fast paced\n'
p1448
aS'I liked the big balls better.\n'
p1449
aS"It's like I can't breathe without you inside of me.\n"
p1450
aS" you just slide it in and that's it\n"
p1451
aS"It's too big, I need both hands.\n"
p1452
aS'Yeah, hold on. let me work the other one\n'
p1453
aS'Great, my pants are getting wet.\n'
p1454
aS"well tonight we're going all the way!\n"
p1455
aS' i spit that out, usually i swallow that sh*it\n'
p1456
aS'Yeah when I get home im gunna rub her down for about an hour n then wax that bitch\n'
p1457
aS'My ass is really sore, but I like it a lot.\n'
p1458
aS'who wants to be the giver this time? and who wants to be the receiver?\n'
p1459
aS'Hop On And Off All Day\n'
p1460
aS'Yup. Done a couple blacks, you know nothing major.\n'
p1461
aS'No WAY! I LOVE MEAT!\n'
p1462
aS'Your bed is comfortable!\n'
p1463
aS" If my whole hand covers it, then it's too small.\n"
p1464
aS'But, its so long and hard!\n'
p1465
aS'yeh he was a little bit stiff though.\n'
p1466
aS'just grab it and shove it up there\n'
p1467
aS"I'm bleeding and it hurts, but I think we should just finish.\n"
p1468
aS"Maybe you can get it in, but it'll be a tight fit.\n"
p1469
aS"I'm sorry I was riding you so hard.\n"
p1470
aS' Jaysus u ripped the shit outa that hole!\n'
p1471
aS"AHHH! This one's a squirter! Somehow it sprayed into my ear too!! Grr now im gonna have smelly white crap all over my shirt all day. It's bad enough i'm already drenched in sweat.\n"
p1472
aS'When I opened it it was hard, then I bit into it and it tasted bad.\n'
p1473
aS"Yeah, I don't like them hard.\n"
p1474
aS'It looks funny, but it feels really good\n'
p1475
aS"Geez, it's dripping everywhere!\n"
p1476
aS'I can make it wetter if you want.\n'
p1477
aS'that was the worst seven seconds of my life.\n'
p1478
aS'Dang, I felt that one go in.\n'
p1479
aS'I just bang it hard til it submits.\n'
p1480
aS'its 50 cents a hole.\n'
p1481
aS"Wow, it's so big! I can't even open my mouth wide enough to fit the whole thing in!\n"
p1482
aS"You're gonna have to play with getting your hole wide enough.\n"
p1483
aS'i was trying to cheer the pants off of him.\n'
p1484
aS'everything about our intercourse pained me\n'
p1485
aS" omg I'm so wet!\n"
p1486
aS"Please don't spray that!\n"
p1487
aS"I'm not blowing anything!\n"
p1488
aS'If I only had a few more inches.\n'
p1489
aS"Aren't you going to put him in? That's what I've been waiting for.\n"
p1490
aS"Would you say that it's more wide or deep?\n"
p1491
aS"Hmm, its wet...but it's not turned on.\n"
p1492
aS'Aw! It just blew junk in my eye\n'
p1493
aS"Sorry I just don't use it that often\n"
p1494
aS'it went right in my mouth! ew ew ew\n'
p1495
aS'Spread it out so i can see it better.\n'
p1496
aS'oh, man! I have never been so wet and sore in my whole life\n'
p1497
aS'Come on, just get it in the hole! Its not even that hard!\n'
p1498
aS'that would be a nice slot to fill\n'
p1499
aS'Hold on, I just want to get it up and done.\n'
p1500
aS'Use one finger, not your whole fist.\n'
p1501
aS"I'll give you some cream\n"
p1502
aS'AH! you got me all wet!\n'
p1503
aS"Guess we'll just have to play with it and see what comes out\n"
p1504
aS"Don't worry it's hard at first, but the more you do it the more you get used to it\n"
p1505
aS'First time seeing this video. Did Zakk get much bigger since then, or\x95\xc8\xc0 is it just me? \n'
p1506
aS'but if I lean over, everyone will see them.\n'
p1507
aS"There's two sizes of holes and it will only fit in the one. Make sure you get it right!\n"
p1508
aS'Ive been pounding that into him for the last year and a half.\n'
p1509
aS"wow.. that's a massive organ\n"
p1510
aS'Dang it, I was almost in!\n'
p1511
aS'That hit would have scored me so many points!\n'
p1512
aS"Just keep pushing, it'll come.\n"
p1513
aS"Just keep going, I'll put it on later.\n"
p1514
aS'I can feel the vibration against my legs\n'
p1515
aS'Just pull it out gently.\n'
p1516
aS'This thing is so tiny! How do I make it bigger?\n'
p1517
aS'you have to grind it nice and slow, that what us woman like\n'
p1518
aS'It hurts when I put it in and out.\n'
p1519
aS"just doesn't like gagging.\n"
p1520
aS'Turn me on and try me!\n'
p1521
aS'Hurry up and come inside.\n'
p1522
aS"The rod's gotta fit in the hole real nice and tight. If it slides right in, the hole's too big.\n"
p1523
aS"It's no biggie, you can just back up into my pole\n"
p1524
aS' just go big or go home.\n'
p1525
aS'I know who you are. I know what you like. I know how you like it. Be here in 15-20 minutes.\n'
p1526
aS'oh, you got wood?\n'
p1527
aS'put it in the wrong hole\n'
p1528
aS"I don't get how this works, the thing won't fit in the hole!\n"
p1529
aS'They penetrate into you about this much.\n'
p1530
aS'Pull out now?? In our moment of triumph??\n'
p1531
aS'she played with bouncy balls all the time\n'
p1532
aS'it went right in my mouth! ew ew ew.\n'
p1533
aS"It's times like these where i wish my mouth was bigger.\n"
p1534
aS'ha you cant fit it in\n'
p1535
aS'yeah cause its too thick..\n'
p1536
aS'Man I hate the feeling of wet wood in my mouth\n'
p1537
aS'what?! that thing is not deep.\n'
p1538
aS'normally i just shove it in and suck it.\n'
p1539
aS"Now, if it's not rising, you may want to reposition your head!\n"
p1540
aS"You're eating me!\n"
p1541
aS'going down now.\n'
p1542
aS"Come in the other way, and you've gotta stay in!\n"
p1543
aS'Man, I hate reaching down there and not finding anything.\n'
p1544
aS" some people do it different ways , some use there hands and go rough and some just don't care and go easy.\n"
p1545
aS"Oh my gosh, I love Dick's!\n"
p1546
aS'I like my meat hard.\n'
p1547
aS"It's sooo cute when you nibble it softly like that!\n"
p1548
aS"Wow, I didn't know what to expect and then it just came on my face.\n"
p1549
aS'Ahhhhhh, Ohhhhh, it went right in there.\n'
p1550
aS'Please do not ride me\n'
p1551
aS'Do you want the front or back?\n'
p1552
aS'I hope to come everyday because that means I make money everyday\n'
p1553
aS'Pull it out! Pull it out! Pull it out!\n'
p1554
aS'Ya i whacked those balls so hard!\n'
p1555
aS"Now I'm all wet.\n"
p1556
aS"You're getting her all wet just put it in.\n"
p1557
aS'Is it thick?\n'
p1558
aS'no, no, you have to do it harder and faster.\n'
p1559
aS'Man I love footlongs!\n'
p1560
aS'You have to lick it and then blow it.\n'
p1561
aS"Now let's do this loud and hard and fast, like it was meant to be done.\n"
p1562
aS'get me one!\n'
p1563
aS'nooo, i have to hold this in my hand, i wont be able to get it out\n'
p1564
aS'just put it in your mouth then you can use your hands!\n'
p1565
aS'You have to wait for it to get hard first!\n'
p1566
aS'could fit a little more in.\n'
p1567
aS'You cannot fit that WHOLE thing in your mouth\n'
p1568
aS"The longer they make you wait, the louder you'll scream.\n"
p1569
aS'You have to put it in when you score!\n'
p1570
aS"Just put it in any hole that's wet enough...\n"
p1571
aS"Everyone finally gets into it and then it's over!\n"
p1572
aS' Wow, how do you keep it up\n'
p1573
aS"no, it's just bigger than what I'm used to.\n"
p1574
aS'well you see you have the shaft and you stick it into the hole\n'
p1575
aS"We've been at it for hours! Can't we just rest?!\n"
p1576
aS"I hated it, I don't like people in my mouth\n"
p1577
aS'Wanna tast my Fazoozle?\n'
p1578
aS"This is the farthest I've ever gone!\n"
p1579
aS'But I banged him!\n'
p1580
aS"It's really big and goes in really deep too.\n"
p1581
aS' Im touched, and im also soaking wet!\n'
p1582
aS'Next time, gently place it in my hands.\n'
p1583
aS"There's not enough in this package!\n"
p1584
aS'you have to go hard at it for 30 seconds\n'
p1585
aS'ok you can pull out now\n'
p1586
aS"Is that one in? ...I can't tell.\n"
p1587
aS"That's the longest ride I've ever had!\n"
p1588
aS"ewwwww, it's in my hair... some one go get me a towel!\n"
p1589
aS'Justin, stop playing with my rack!\n'
p1590
aS"Put it back in and don't take it out!\n"
p1591
aS"bet you can't stick that whole thing in your mouth!\n"
p1592
aS"I'll squeeze it if I have to.\n"
p1593
aS'do you know how messy it will get if we do that in the tent?\n'
p1594
aS'Sorry but Jason already got my cherry\n'
p1595
aS'Wow, this thing is longer than I thought it was. We could jump rope with it!\n'
p1596
aS'I feel so big, it almost hurts.\n'
p1597
aS"Oh I'm easy, I'm always easy.\n"
p1598
aS'Then I caught a MASSIVE one and rode it till all that white stuff was gone!\n'
p1599
aS"It's an acquired taste.\n"
p1600
aS"I got it in my eye! It's stinging and burning!!\n"
p1601
aS'its so small and skinny and it has no juice.\n'
p1602
aS"Man! I'm sure going to get a big load today!\n"
p1603
aS'I took so long trying to shove it in the damn hole!\n'
p1604
aS'See look at how much smaller it is\n'
p1605
aS'Shew, I wish a ride could get me wet for once.\n'
p1606
aS" I'm having a hard time getting it in. It just won't go in its too big.\n"
p1607
aS'Is that THING going to come in HERE?\n'
p1608
aS"it's so tiny, it hurts my eyes.\n"
p1609
aS'Mmmmmm, wonderful and wet! I really needed that.\n'
p1610
aS'Now, You all need to be up for this game.\n'
p1611
aS'I just love watching you try to get your mouth around that.\n'
p1612
aS'This one is not as big as some of the others I have had.\n'
p1613
aS'I hate how he always puts it in at the wrong time.\n'
p1614
aS"It's so hard, it's become a part of me\n"
p1615
aS"I love the taste, but it's just too big to fit in my mouth!\n"
p1616
aS"whoa that's a lot of nuts\n"
p1617
aS'Make sure you lube it up before you drill it in.\n'
p1618
aS'you gotta ride that\n'
p1619
aS"I'll take a ride on that for $600!\n"
p1620
aS"You're sticking out\n"
p1621
aS"If the SIZE doesn't amaze you, the TASTE will!\n"
p1622
aS"honey stop sticking your bones into people's soft spots!\n"
p1623
aS"What the hell, man? I'm putting in so much effort here and you're putting in none at all! You have to do some of the work, too!\n"
p1624
aS'You can feel free to put it anywhere you want.\n'
p1625
aS"you guys are never going to get a good sound that way, it doesn't matter if your fingerings are perfect or if your tounging is great, if you don't control your air and blow in a steady unbreakable stream, you will never be successful! its all in how you blow!\n"
p1626
aS'Donations accepted in the rear\n'
p1627
aS"Remember, guys, it's not about the size, it's all about the taste,\n"
p1628
aS'it only gets hard when it hits me in the face.\n'
p1629
aS'Straddling wood is more comfortable for me, because I ride.\n'
p1630
aS"let's all just squeeze in and we'll have a good time.\n"
p1631
aS"Ugh, I can't get it out!\n"
p1632
aS'It was so worth getting on my knees for that.\n'
p1633
aS'I usually try to get as much ash (sounding like ass) as possible until I have to knock it off...my record is only 2 inches.\n'
p1634
aS"it'll go down by itself, no need for you to stick your fingers down there\n"
p1635
aS"What'd you have to do that for?! I wanted to make 'love'!\n"
p1636
aS'Wait! you have to wrap it up before you just stick it in!\n'
p1637
aS"That's a mighty big snake. I don't know if you'll be able to fit it all in your mouth.\n"
p1638
aS'I heard it was short, but not that short.\n'
p1639
aS"Man this thing looks small but it's got alot of surface area.\n"
p1640
aS'I know, it was soooo fast\n'
p1641
aS'give me something to ride!\n'
p1642
aS'Is everybody in?\n'
p1643
aS"Wow, that's really stretching it!\n"
p1644
aS'Wow! I got her pants so wet!\n'
p1645
aS'other people need to get in there.\n'
p1646
aS"It's long, but its not hard.\n"
p1647
aS'Whoa, I made it bigger!\n'
p1648
aS'oh my knees hurt, can you remind me not to kneel next time?\n'
p1649
aS"You get the front and i'll get the back.\n"
p1650
aS"slow down, i can't get it in the hole.\n"
p1651
aS"If you only do easy ones, then you'll be screwed when you come across a hard one.\n"
p1652
aS'Do you need any help getting it up? Wait...\n'
p1653
aS"No, it won't fit in that spot! Try the other hole ... See? It fits better in there.\n"
p1654
aS"It's ok, I just want your meat.\n"
p1655
aS"It's so wet down here.\n"
p1656
aS"I'm going to get my vibrator and go to bed!\n"
p1657
aS'WRONG HOLE!\n'
p1658
aS"I'M ALL WET AND STICKY!\n"
p1659
aS"Ya, that's the right one. I think you're putting it in wrong.\n"
p1660
aS"I don't like it going in really deep at first, but then when I warm up I like going down,\n"
p1661
aS'Maybe you should go around the other side\n'
p1662
aS"I think I can get in there. Wait, it's stuck in the bush, I don't know if I can get it out...\n"
p1663
aS"Okay, I wake up in the middle of the night, and it feels like he's been inside me\n"
p1664
aS'man, this is a weird screwing position.\n'
p1665
aS'haha, but seriously its hard.\n'
p1666
aS"Leave it in!! I'm getting wet, and its already in too deep!!\n"
p1667
aS"Really? I couldn't tell... How into me are you?\n"
p1668
aS'Knead it first, then you gotta suqeeze to get the white stuff out\n'
p1669
aS"What can mess things up is if it's really hard because if it's too hard, you'll be in there for over an hour just putzing around.\n"
p1670
aS'I told him a thousand times not to squirt it in my face but he did it anyway!\n'
p1671
aS'just a little bit more, little bit more, yeah right there.\n'
p1672
aS"Just hold on, I'm coming!\n"
p1673
aS"It wouldn't fit in the hole\n"
p1674
aS"Didn't we already do this hole?\n"
p1675
aS"Wow, it's not as hard as it's supposed to be.\n"
p1676
aS'Just hold the two balls in your hand before doing anything else with them\n'
p1677
aS'well if he comes in to my hands i can do what i want with him\n'
p1678
aS'Try to rub it off before you stick it in.\n'
p1679
aS'Screw the white one the black ones bigger and you get more bounce off of it. Who cares if its a little hard to control!\n'
p1680
aS"Holy cow, this thing is scary, it's too big for me.\n"
p1681
aS'Get it in my mouth, not on my face!\n'
p1682
aS'Worry less about the ball and more about the head!\n'
p1683
aS"Alright, I'm going to need one of you manly men to put some wood in for me.\n"
p1684
aS'The Nut went down the wrong pipe\n'
p1685
aS"It's practically in my mouth...it's in my mouth!\n"
p1686
aS'[the bracelette] it tends to stretch when wet\n'
p1687
aS"Dang it all! It's supposed to be hard, not soft!\n"
p1688
aS'Can I go a day without you trying to jam meat down my throat?!\n'
p1689
aS'it tends to stretch when wet\n'
p1690
aS"I've never blown a giraffe before!\n"
p1691
aS"It's okay i get hit in the face with balls all the time!\n"
p1692
aS"There's something wrong, its just not going in!\n"
p1693
aS'oh no its okay, you could push it in more\n'
p1694
aS'Just getting it in correctly is half the battle!\n'
p1695
aS'It was hard, but kinda fun.\n'
p1696
aS"omg, I don't like any of these positions!\n"
p1697
aS'I remember when Dad asked if I was ready to handle a populated road and I was heaps excited but when I came to the intersection, I pulled out too late and a guy came in my ass\n'
p1698
aS'hey stop putting your finger in there!\n'
p1699
aS'Hold it gently...Your shoving it in too hard!\n'
p1700
aS"I couldn't stop staring at it... it was just so red.\n"
p1701
aS'you have to go up and down.\n'
p1702
aS"That's good, because no matter how wet you get her, it still won't penetrate!\n"
p1703
aS"Well, 13 inches is way too small. I could do 15, but I'd prefer 17- It'll make everything faster.\n"
p1704
aS"Wow. This one's a mouthful\n"
p1705
aS"It's a good three inches deep. You should be able to fit a nice big sized rod in there.\n"
p1706
aS"I don't like the thick ones. I can't hold on to them if they're too thick.\n"
p1707
aS"There's just something about Papa John's sauce\n"
p1708
aS"Eww.. it's all over me. My face is sticky and I'm wet.\n"
p1709
aS'I squeezed one of them too hard and it went up my nose.\n'
p1710
aS'I was gonna blow that!\n'
p1711
aS'wow, look how long that guy is.\n'
p1712
aS'Almost done, only two more holes left!\n'
p1713
aS"tell me if I'm going too fast and I'll slow down.\n"
p1714
aS'He was too lazy to come.\n'
p1715
aS"Oh my God. I can't keep this up all night. It's too long and hard for me to do! And then I'm trying not to scream, and it's just making me more crazy!\n"
p1716
aS"GET IN THE HOLE! Damn this thing is just too big! I'm gonna freaking EXPLODE!\n"
p1717
aS"it was the best thing I've ever put in my mouth!\n"
p1718
aS'Why are they all so big? I just want a small pair of balls!\n'
p1719
aS'Dude, you just blew it all over my face.\n'
p1720
aS'What happened to the rubber?\n'
p1721
aS'First I like to go up, then I like to go down, then from side to side and then all around.\n'
p1722
aS"I really love it, but I'll have to work my way around the nuts\n"
p1723
aS'I love staring at people when they pull out.\n'
p1724
aS"That won't work like that, try putting it in this hole.\n"
p1725
aS"It's short but gets straight to the point\n"
p1726
aS'I thought I could swallow it all, but I was wrong.\n'
p1727
aS'Oh yeah, I love some meat in the morning.\n'
p1728
aS'Joel, Why is this part so big?\n'
p1729
aS'Omg it hurts so much but it feels so good.\n'
p1730
aS'I could blow better than him.\n'
p1731
aS'At least he has a nicely trimmed bush.\n'
p1732
aS"Then let's do it!\n"
p1733
aS'wow you stretched me so good.\n'
p1734
aS"oh sorry it was so little I didn't even notice it\n"
p1735
aS'Wow, eight dollars is cheap for a handjob!\n'
p1736
aS"Just stick that wherever it fits, there's gotta be a big enough hole somewhere.\n"
p1737
aS"It's very sensitive, use your finger.\n"
p1738
aS'Honey, do you want pink or brown?\n'
p1739
aS"Don't expect me to keep sucking on it before i swallow!\n"
p1740
aS"it's not like they are both in your mouth at the same time.\n"
p1741
aS'what part of our relationship makes you think you can go in there.\n'
p1742
aS"Don't worry I'll grab your meat.\n"
p1743
aS'I have a muffin downstairs.\n'
p1744
aS'I opened my mouth too wide and it dribbled out.\n'
p1745
aS"I was okay, then I just started getting all wet and I didn't really like the feeling of it\n"
p1746
aS'if you go down low and pull out in the corner, your gonna get back tapped by 4 different guys\n'
p1747
aS'it was little but it went deep.\n'
p1748
aS"No thanks, the little ones don't last long. I prefer the bigger thicker ones.\n"
p1749
aS"It's so slippery, I can't get a good grip on it.\n"
p1750
aS'squeeze it really hard until it comes.\n'
p1751
aS"I'm just trying to get this sticky stuff out of my hole.\n"
p1752
aS'It was so good, I wish it was still in my mouth.\n'
p1753
aS'Well...I yelled at her. Then I got her wet.\n'
p1754
aS"I don't know why this puts me at a loss for words but I'm taking it out!\n"
p1755
aS"Well, it's not quite the size I wanted it to be, but it'll have to do.\n"
p1756
aS'I would let you poke me in the butt with it too.\n'
p1757
aS'Alright it is going to be hard when you first try, but it will get easier at the end.\n'
p1758
aS'i like it cause the stick is so big, it feels good, its so easy to pull\n'
p1759
aS'Ugh, Why is it so slippery?\n'
p1760
aS'I think it might have been the group that was just using it.\n'
p1761
aS"What's the matter, just suck it up, it's going to be over in a couple seconds anyways!\n"
p1762
aS"You guys might not care if it's dirty but us girls sure do.\n"
p1763
aS'Wait, let him slide in first\n'
p1764
aS"Oh my god it's too much i can barely swallow.\n"
p1765
aS'Stick the narrower part in first, it goes in easier that way.\n'
p1766
aS'You know I hate it when you squirt me in the eye!\n'
p1767
aS'This is way to much meat for me.\n'
p1768
aS"It's still not very big\n"
p1769
aS"If the legs aren't straight it's going to go in crooked.\n"
p1770
aS'You have to pump it long and hard so there is enough pressure for it to squirt.\n'
p1771
aS"I cant get my fingers in there it's too tight!\n"
p1772
aS"Mmmmmm, it's salty.\n"
p1773
aS'Eww this has a hair on it!\n'
p1774
aS'forget about the wrapper, I want it in my mouth now!!!\n'
p1775
aS"I'm tired and irritated of being in the same position!\n"
p1776
aS"We may be in for a wild ride, it's coming at us hard, but if we are prepared we may be safe.\n"
p1777
aS'we did it in the bathroom and it got all over my face.\n'
p1778
aS'it keeps going in and popping out again!\n'
p1779
aS'Go ahead, come in my hole!\n'
p1780
aS'its always so sticky and hard to get out of your hair.\n'
p1781
aS"it's not that hard, we just haven't done it in a while\n"
p1782
aS'I need a 12 inch Italian Stallion (meat pizza).\n'
p1783
aS"This thing just won't go in,\n"
p1784
aS'Maybe we should switch positions.\n'
p1785
aS'Ugh, a big glob just landed on my cheek.\n'
p1786
aS"I can feel it with my hand, but I can't put it in the right spot.\n"
p1787
aS"Wait we didn't do it right, there was supposed to be a big explosion at the end!\n"
p1788
aS"this one's ugly but doable.\n"
p1789
aS"I wouldn't be able to pull out with this big thing.\n"
p1790
aS'I wasnt sure if i could take anymore but i swallowed it anyways\n'
p1791
aS'you have to pull it long and hard until it comes.\n'
p1792
aS"The next time I see a pole, I'm jumping on it!\n"
p1793
aS'hit that crack and it should go in the hole\n'
p1794
aS"I got blessed with Glenn's... so long!\n"
p1795
aS"OW! Walter! You're so god damn big! I think you broke it!\n"
p1796
aS"I can't get it to come out\n"
p1797
aS'Try sticking two fingers up there\n'
p1798
aS'That black one was really short. I was kind of disappointed.\n'
p1799
aS'it comes in spurts.\n'
p1800
aS"I'm getting double meat.\n"
p1801
aS'Come on Arin just Grab it and go\n'
p1802
aS"Go ahead and stick it in there when I'm not looking.  It won't make it hurt any less!\n"
p1803
aS' Sorry I cant talk when my mouth is full\n'
p1804
aS"He's not going to be able to get in the backdoor, there's a stool in the way.\n"
p1805
aS'anything penetrating yet?\n'
p1806
aS"UGH! I keep licking it and rubbing it and it won't come off!\n"
p1807
aS"I will wait until it's hard.\n"
p1808
aS"I like where you're head's at.\n"
p1809
aS'dont worry, the first hole is a practice hole\n'
p1810
aS"I feel so bad. I know you must've been looking for the perfect place to stick that in all night long.\n"
p1811
aS"I'm just going to wrap your meat so it doesn't mix with the eggs.\n"
p1812
aS'If i squirt you, then you can squirt me.\n'
p1813
aS'Can we finish this orally, my hand is starting to hurt.\n'
p1814
aS'...but Harry, you are SO thick sometimes!\n'
p1815
aS'ya, guys are in and out before you even get your pants down\n'
p1816
aS'Every time you come in my room you make a mess.\n'
p1817
aS"It's so thick I can't get my hands around it.\n"
p1818
aS"Oh jeez that's no good, he hasn't even pulled out yet and he's already losing wood.\n"
p1819
aS"if you play with it in front of me, I'm going to want to touch it.\n"
p1820
aS"It's so moist I can eat it all night long.\n"
p1821
aS"be careful, you're getting protein on the floor.\n"
p1822
aS'I have to keep this in and around my mouth at all times.\n'
p1823
aS" That's huge, I bet it hurt!\n"
p1824
aS"I don't want it to blow in my face.\n"
p1825
aS"It's so awkward, I hate how he always tries to have a conversation with me while he's in my mouth.\n"
p1826
aS"I think it's in already.\n"
p1827
aS"Okay, but you can't have my cherry.\n"
p1828
aS' it starts out soft but then gets hard and long and gives you a great ride.\n'
p1829
aS'caviar should be round and hard and of adequate size...and it should burst in your mouth at precisely the right moment\n'
p1830
aS"I don't know if my throat can take anymore. It was hard enough to make it the whole 10 minutes.\n"
p1831
aS'I have been having trouble getting them up today but luckily the guys around here are patient.\n'
p1832
aS"I'm sorry if it's a little dusty down there.\n"
p1833
aS"I can't go 2 minutes without getting railed from behind\n"
p1834
aS"If you put it in there without a cover over it it will get so hot that it will explode everywhere, and i don't want to make a big mess.\n"
p1835
aS'Try to stick it in the other hole\n'
p1836
aS'ugh, love the taste but hate the texture.\n'
p1837
aS'Open wide so I can stick it good in there\n'
p1838
aS'Wow, you can spread them.\n'
p1839
aS'Give me some Dick\n'
p1840
aS"Don't pull out! DO NOT PULL OUT!\n"
p1841
aS'aww! I was about to blow and it got all in my hair!\n'
p1842
aS"I don't know how to go down on this thing.\n"
p1843
aS'Wow, two holes and you miss them both.\n'
p1844
aS'Whoa I didnt know it would come out that fast.\n'
p1845
aS"I've been trying to get that f-ing nut off all day but it was too hard and tight!\n"
p1846
aS"that hole wasn't that big!\n"
p1847
aS'He was big and I was nervous, I just took the picture and got out of there.\n'
p1848
aS"Huh, I've tried sticking things in there before, but nothing ever worked.\n"
p1849
aS'I take most of my shots in the behind.\n'
p1850
aS'That position looks awkward.\n'
p1851
aS"Oh, it looks super-awkward for people watching, but it feels GREAT when you're doing it.\n"
p1852
aS'My brother always wants to touch it....my sister is afraid of it....and my mom wants nothing to do with it.\n'
p1853
aS'Well that looks like a mouthful.\n'
p1854
aS"I know it's only a couple inches, but it makes a big difference.\n"
p1855
aS'just no matter what keep making me take it, even if you have to shove it down my throat.\n'
p1856
aS"I don't wanna blow Kevin's! I have no idea where that thing's been!\n"
p1857
aS'it feels tighter than before.\n'
p1858
aS'Thanks asshole! I really wanted your spray in my face.\n'
p1859
aS'it was nowhere as big as he said it was.\n'
p1860
aS"wow I've never seen any that thick before! I bet this means we can't fit as many in now.\n"
p1861
aS'You just have to keep rubbing it!\n'
p1862
aS"it's not that big, stick it in your mouth and suck it till the juice comes out\n"
p1863
aS"Face your partner and simultaneously raise your sticks. Then as your partner jabs at you with his stick, move inside so as to avoid the full impact. Then use your left hand to grab their stick, while simultaneously shoving your stick into your partner's face.\n"
p1864
aS'grrr.. my vibrator is broke\n'
p1865
aS'make sure your grip on the shaft is tight and your strokes long and hard.\n'
p1866
aS'My thighs are sooo freaking sore.\n'
p1867
aS"It's okay. It's your first time, it'll get better.\n"
p1868
aS'no sucking for at least a week.\n'
p1869
aS'I like medium-sized, not massive.\n'
p1870
aS'God, how many times do I have to blow this thing to make it turn on!?\n'
p1871
aS"It's so juicy, it's running down my face.\n"
p1872
aS'You stuck it WHERE?\n'
p1873
aS'You have to pump it til it squirts.\n'
p1874
aS"Don't you think these buns are a little too big for this meat?\n"
p1875
aS"That's okay, We're used to being on our knees.\n"
p1876
aS'I think you just play with it until it comes out.\n'
p1877
aS'OK... I swallowed!\n'
p1878
aS"man I hope that thing doesn't infect me I don't want to get a shot!\n"
p1879
aS"it only works if it's wet\n"
p1880
aS"you're in then you're out, you're up then you're down\n"
p1881
aS'i could beat it for you if you want me to\n'
p1882
aS"I've never seen anything so short in my life!\n"
p1883
aS"Aw you popped  my cherry! Wow, that's disgusting...\n"
p1884
aS"Hurry up!! It's getting hard! It's getting hard!\n"
p1885
aS"I'm trying! But it's getting all over my hands!\n"
p1886
aS'Argh, you always come at such annoying times.\n'
p1887
aS"I don't know if I can fit another one in, I've already had so much junk inside me this week!\n"
p1888
aS'I want to ride that big banana!\n'
p1889
aS"blow harder, it'll come out eventually.\n"
p1890
aS"I don't think I am doing this right.\n"
p1891
aS'You are supposed to use two fingers.\n'
p1892
aS'Yeah, going in is a lot tougher than coming back out.\n'
p1893
aS'Oh, well I am used to spreading my legs.\n'
p1894
aS'Tweedeley dee, tweedeley dum, look out baby cause here I come.\n'
p1895
aS"I can't hold your position unless you come.\n"
p1896
aS"but I don't wanna bend over, I'm all sticky\n"
p1897
aS"It's really dry, do you want me to pull it out now?\n"
p1898
aS'I just suck on it till the juice comes out.\n'
p1899
aS'Why am I always the one who has to go down?\n'
p1900
aS'When I blow, nothing happens!\n'
p1901
aS"It's great, because there's a ton of positions and it's still really satisfying.\n"
p1902
aS'It looks better when its all wet.\n'
p1903
aS'The stuff comes out no matter where you squeeze it.\n'
p1904
aS"Come over here and I'll show you how to put this thing in.\n"
p1905
aS"I can't see it, can you make it bigger?\n"
p1906
aS'Oh, I can fit a bigger one.\n'
p1907
aS"Geez, it's like he's never eaten out before!\n"
p1908
aS"It's too big, it's too wide, it's too strong, it won't fit, It's too much, it's too tough\n"
p1909
aS'Is that where you keep your balls?\n'
p1910
aS'which side sucks and which side blows?\n'
p1911
aS'gosh, your making me so wet\n'
p1912
aS'harder, harder, yeah. i like it that way.\n'
p1913
aS'You need to keep your contact tight and your hips loose.\n'
p1914
aS'Oh man, we have a lot of good ones. I just wish I could remember them.\n'
p1915
aS'Yea, too bad they only come when we are drunk.\n'
p1916
aS'Oh, I guess my hole was just big enough for you to fit it in.\n'
p1917
aS"You can put it it in or take it out, but either way, you're not going to sleep tonight.\n"
p1918
aS"I could make sex, but it doesn't fit anywhere.\n"
p1919
aS"Does it really matter if it's bent? You're just going to take it out in a minute anyway!\n"
p1920
aS'I like to just put a whole load in my mouth and suck on it\n'
p1921
aS'wow this knob is stiffer than I thought it would be.\n'
p1922
aS'wow! its amazing how fast it exploded!\n'
p1923
aS'My arm is so tired...it feels like its about to fall off.\n'
p1924
aS'Harder, faster, keep going!\n'
p1925
aS"...so they can dock their boats in the Queen's harbor.\n"
p1926
aS"In fact, you're soft all over!\n"
p1927
aS'Oh man, I wish I came last night.\n'
p1928
aS"wow, we haven't gotten ANY sleep...\n"
p1929
aS'Get that white stuff out of my ear!\n'
p1930
aS'What am I, your ball washer?\n'
p1931
aS"Will you two stop playing so dirty! You just keep wacking each other over and over. Obviously it's not doing anything.\n"
p1932
aS'This bush smells so good, I just want to keep my face in it all day.\n'
p1933
aS'oh yea, right there. rub it harder.\n'
p1934
aS"It's spraying that stuff everywhere and no one's cleaning it up.\n"
p1935
aS"let's try going deeper, just make sure to keep track of both balls and keep gripping them!\n"
p1936
aS'I need more wood.\n'
p1937
aS'Are you done yet?\n'
p1938
aS"it doesn't have to be that hard to be effective.\n"
p1939
aS"OMG I JUST CHOKED ON THIS! I was sucking on it and I didn't think it'd go up!\n"
p1940
aS'These nuts are too small, they are so hard to find.\n'
p1941
aS"Oh I don't want to do this one, it's too long.\n"
p1942
aS'get out of it down there, your whiskers are tickling me!\n'
p1943
aS'God, I love Cox!\n'
p1944
aS"Be careful, I don't want it going off too soon again.\n"
p1945
aS"This ball is too big!  It won't fit in between my legs!\n"
p1946
aS'easier to put in than take out.\n'
p1947
aS'You really need to learn how to screw better.\n'
p1948
aS"I'm sorry, I just haven't learned how to screw as good as you.\n"
p1949
aS"Don't poke me with that! It's got white stuff on it!!\n"
p1950
aS"There's no way I can vault over that!\n"
p1951
aS"Oh, don't worry, it'll stretch when you hit it.\n"
p1952
aS"Don't worry, It's still in there ma'am\n"
p1953
aS'Sure, just spray it in my eye.\n'
p1954
aS'I put it in but then it hurt really, really bad so I pulled it out really fast.\n'
p1955
aS'this thing is too big and hard and it makes me gag!\n'
p1956
aS'Thomas you have to push it in and twist!\n'
p1957
aS'Whack it as hard as you can.\n'
p1958
aS'its not as big once you get it in your mouth.\n'
p1959
aS'deeper, go deeper! deeper!\n'
p1960
aS'Then should we suck you dry?\n'
p1961
aS'If you squirt that in my face we are no longer friends.\n'
p1962
aS"hey don't bite so hard!\n"
p1963
aS'It went right in; you just slipped it right up there!\n'
p1964
aS'Whoa! Looks like something big went down here.\n'
p1965
aS"You took it out way to early and im sooooo wet! Put it back in and don't get it everywhere!\n"
p1966
aS"Sure, just make me go down, why don't ya!\n"
p1967
aS"There's more on the floor than in my mouth.\n"
p1968
aS'I just squirted everywhere!\n'
p1969
aS'Drive those balls deep\n'
p1970
aS"It's not coming fast enough.\n"
p1971
aS'its pretty hard, but I can usually ease myself into the hole.\n'
p1972
aS'wow, I really opened myself up for that one.\n'
p1973
aS"Eww there's fur in my mouth.\n"
p1974
aS'Why do they stick it in so far?\n'
p1975
aS'Where should I spit this?\n'
p1976
aS'You know, I think you took it out too early...put it back in for a while.\n'
p1977
aS"i like 'em really tight.\n"
p1978
aS'just put it in and it will be all downhill from here\n'
p1979
aS'Nolan! You got it all over my face!\n'
p1980
aS" You're doing it wrong, you have to push hard and make sure you get in there deep.\n"
p1981
aS'Well, it was all the way down, then Jenny brought it up some, and Kristin got it all the way up.\n'
p1982
aS'Just aim at the hole and shoot it in.\n'
p1983
aS'Do you want to come and taste my sauce\n'
p1984
aS'but hes doing it so hard and fast!\n'
p1985
aS'oh its bigger than I thought.\n'
p1986
aS"hey is that a grande? I paid for a grande but it doesn't feel like a grande.\n"
p1987
aS'AHH! It exploded in my mouth! But it tastes pretty good!\n'
p1988
aS'Am I doing this right?\n'
p1989
aS"I don't even know who I should go to...a bone doctor?\n"
p1990
aS'Open package and insert here.\n'
p1991
aS'Damn I penetrated too far!\n'
p1992
aS"That's huge!\n"
p1993
aS'I regretted it as soon as I put it in my mouth.\n'
p1994
aS'Keep going\n'
p1995
aS"I'm looking for a better one.\n"
p1996
aS'pull out now\n'
p1997
aS"Oh, I didn't know you pulled it out already.\n"
p1998
aS'I know its hard, but we just gotta ride it out.\n'
p1999
aS'Ok, do you want to suck first or should I?\n'
p2000
aS"It only looks big because it's all red\n"
p2001
aS"Come on! If it had gone in my mouth I wouldn't have cared, but you had to shoot it up the wrong hole!.\n"
p2002
aS"aww, man! the cap broke off! now it's spraying everywhere!\n"
p2003
aS"make sure you put it in soon or I'll cut it off.\n"
p2004
aS'Yeah, sometimes I like to open her up and play with her.\n'
p2005
aS"it's sooo hard! I can't fit it in, it's just too small.\n"
p2006
aS"wait, I'm coming!\n"
p2007
aS' I got my kness all dirty for nothing!\n'
p2008
aS'Yeah, you know I have the biggest mouth in the whole school.\n'
p2009
aS'it was soooo long, and really hard.\n'
p2010
aS"That's the biggest shot I've ever taken.\n"
p2011
aS"Oh, I'm sorry, I thought you were still inside.\n"
p2012
aS'best 4 inches ever\n'
p2013
aS'pull out the stick, wipe it off, then put it back in.  Then pull it out again and look at how much fluid is left on the stick.\n'
p2014
aS'Oh, I thought it would be longer.\n'
p2015
aS"Don't worry, I blew him dry.\n"
p2016
aS'it goes down easy but is hard to get it back up.\n'
p2017
aS'Come with me!\n'
p2018
aS'Ahh, it hit me right in the face.\n'
p2019
aS"you didn't put it in far enough.\n"
p2020
aS"I can't keep it in my mouth.\n"
p2021
aS'that is at the worst possible angle to get it in there.\n'
p2022
aS'my shaft is longer than yours.\n'
p2023
aS'do you really want it going into your mouth when you are sleeping?\n'
p2024
aS'well most people are able to feel it go into them.\n'
p2025
aS'I can feel it in my butt.\n'
p2026
aS"it doesn't hurt if you go fast enough.\n"
p2027
a.